
pico_test_1.elf:     file format elf32-littleriscv
pico_test_1.elf
architecture: riscv:rv32, flags 0x00000112:
EXEC_P, HAS_SYMS, D_PAGED
start address 0x00001000

Program Header:
    LOAD off    0x00001000 vaddr 0x00001000 paddr 0x00001000 align 2**12
         filesz 0x00001974 memsz 0x00001974 flags r-x
    LOAD off    0x00003000 vaddr 0x00000000 paddr 0x00002974 align 2**12
         filesz 0x00000000 memsz 0x00000004 flags rw-

Sections:
Idx Name           Size      VMA       LMA       File off  Algn  Flags
  0 .text          00001974  00001000  00001000  00001000  2**3  CONTENTS, ALLOC, LOAD, READONLY, CODE
  1 .data          00000000  00000000  00002974  00003000  2**0  CONTENTS, ALLOC, LOAD, DATA
  2 .bss           00000004  00000000  00002974  00003000  2**2  ALLOC
  3 .heap          00000000  00000004  00000004  00003000  2**0  CONTENTS
  4 .debug_info    000023ac  00000000  00000000  00003000  2**0  CONTENTS, READONLY, DEBUGGING
  5 .debug_abbrev  000007dd  00000000  00000000  000053ac  2**0  CONTENTS, READONLY, DEBUGGING
  6 .debug_loc     0000076d  00000000  00000000  00005b89  2**0  CONTENTS, READONLY, DEBUGGING
  7 .debug_aranges 000000f8  00000000  00000000  000062f8  2**3  CONTENTS, READONLY, DEBUGGING
  8 .debug_ranges  00000330  00000000  00000000  000063f0  2**0  CONTENTS, READONLY, DEBUGGING
  9 .debug_line    00000dfd  00000000  00000000  00006720  2**0  CONTENTS, READONLY, DEBUGGING
 10 .debug_str     000006d3  00000000  00000000  0000751d  2**0  CONTENTS, READONLY, DEBUGGING
 11 .comment       0000003a  00000000  00000000  00007bf0  2**0  CONTENTS, READONLY
 12 .debug_frame   00000330  00000000  00000000  00007c2c  2**2  CONTENTS, READONLY, DEBUGGING
SYMBOL TABLE:
00001000 l    d  .text	00000000 .text
00000000 l    d  .data	00000000 .data
00000000 l    d  .bss	00000000 .bss
00000004 l    d  .heap	00000000 .heap
00000000 l    d  .debug_info	00000000 .debug_info
00000000 l    d  .debug_abbrev	00000000 .debug_abbrev
00000000 l    d  .debug_loc	00000000 .debug_loc
00000000 l    d  .debug_aranges	00000000 .debug_aranges
00000000 l    d  .debug_ranges	00000000 .debug_ranges
00000000 l    d  .debug_line	00000000 .debug_line
00000000 l    d  .debug_str	00000000 .debug_str
00000000 l    d  .comment	00000000 .comment
00000000 l    d  .debug_frame	00000000 .debug_frame
00000000 l    df *ABS*	00000000 main.c
00000000 l    df *ABS*	00000000 spi.c
00000000 l    df *ABS*	00000000 ./src/start.o
00001000 l       .text	00000000 start
0000107a l       .text	00000000 setmemloop
000010a2 l       .text	00000000 end_init_data
00001096 l       .text	00000000 loop_init_data
000010b8 l       .text	00000000 end_init_bss
000010ae l       .text	00000000 loop_init_bss
00000000 l    df *ABS*	00000000 uart.c
000011ce l     F .text	0000004c print_num.part.0
00000000 l    df *ABS*	00000000 muldf3.c
00000000 l    df *ABS*	00000000 subdf3.c
00000000 l    df *ABS*	00000000 fixdfsi.c
00000000 l    df *ABS*	00000000 floatunsidf.c
00000000 l    df *ABS*	00000000 libgcc2.c
00000000 l    df *ABS*	00000000 libgcc2.c
000012ce g     F .text	00000078 print_flt
000011b2 g     F .text	0000000a SPI_ReadData
00002974 g       .text	00000000 _sidata
000010c0 g     F .text	00000080 led_blink
00002974 g       .text	00000000 _etext
00000000 g       .bss	00000000 _sbss
0000147a g     F .text	00000084 getchar_prompt
0000123a g     F .text	00000028 print_str
00000000 g     O .bss	00000004 temp_data
000011ac g     F .text	00000006 SPI_WriteData
00000000 g       .data	00000000 _sdata
000012be g     F .text	00000010 print_dec
000024b8 g     F .text	000000c0 .hidden __floatunsidf
00000004 g       .bss	00000000 _ebss
00002434 g     F .text	00000084 .hidden __fixdfsi
00000004 g       .heap	00000000 _heap_start
00000000 g       .data	00000000 _ram_start
000014fe g     F .text	0000002a get_char
00002578 g     F .text	00000094 .hidden __clzsi2
00001346 g     F .text	00000134 printk
00001528 g     F .text	0000068c .hidden __muldf3
000012ae g     F .text	00000010 print_hex2
00001140 g     F .text	0000005c main
00001262 g     F .text	0000004c print_hex
000011a4 g     F .text	00000008 SPI_CS_Disable
00002874 g     O .text	00000100 .hidden __clz_tab
000011bc g     F .text	0000000c SPI_ReadWrite
000011c8 g     F .text	00000006 print_num
00000000 g       .data	00000000 _edata
0000119c g     F .text	00000008 SPI_CS_Enable
00001bb4 g     F .text	00000880 .hidden __subdf3
0000121a g     F .text	00000020 put_char



Disassembly of section .text:

00001000 <start>:
start():
D:\Files\Pango\FPGA_prjs\picorv32\Software\pico_test_1\Debug/../src/start.S:5
    1000:	00000093          	li	ra,0
D:\Files\Pango\FPGA_prjs\picorv32\Software\pico_test_1\Debug/../src/start.S:7
    1004:	00000193          	li	gp,0
D:\Files\Pango\FPGA_prjs\picorv32\Software\pico_test_1\Debug/../src/start.S:8
    1008:	00000213          	li	tp,0
D:\Files\Pango\FPGA_prjs\picorv32\Software\pico_test_1\Debug/../src/start.S:9
    100c:	00000293          	li	t0,0
D:\Files\Pango\FPGA_prjs\picorv32\Software\pico_test_1\Debug/../src/start.S:10
    1010:	00000313          	li	t1,0
D:\Files\Pango\FPGA_prjs\picorv32\Software\pico_test_1\Debug/../src/start.S:11
    1014:	00000393          	li	t2,0
D:\Files\Pango\FPGA_prjs\picorv32\Software\pico_test_1\Debug/../src/start.S:12
    1018:	00000413          	li	s0,0
D:\Files\Pango\FPGA_prjs\picorv32\Software\pico_test_1\Debug/../src/start.S:13
    101c:	00000493          	li	s1,0
D:\Files\Pango\FPGA_prjs\picorv32\Software\pico_test_1\Debug/../src/start.S:14
    1020:	00000513          	li	a0,0
D:\Files\Pango\FPGA_prjs\picorv32\Software\pico_test_1\Debug/../src/start.S:15
    1024:	00000593          	li	a1,0
D:\Files\Pango\FPGA_prjs\picorv32\Software\pico_test_1\Debug/../src/start.S:16
    1028:	00000613          	li	a2,0
D:\Files\Pango\FPGA_prjs\picorv32\Software\pico_test_1\Debug/../src/start.S:17
    102c:	00000693          	li	a3,0
D:\Files\Pango\FPGA_prjs\picorv32\Software\pico_test_1\Debug/../src/start.S:18
    1030:	00000713          	li	a4,0
D:\Files\Pango\FPGA_prjs\picorv32\Software\pico_test_1\Debug/../src/start.S:19
    1034:	00000793          	li	a5,0
D:\Files\Pango\FPGA_prjs\picorv32\Software\pico_test_1\Debug/../src/start.S:20
    1038:	00000813          	li	a6,0
D:\Files\Pango\FPGA_prjs\picorv32\Software\pico_test_1\Debug/../src/start.S:21
    103c:	00000893          	li	a7,0
D:\Files\Pango\FPGA_prjs\picorv32\Software\pico_test_1\Debug/../src/start.S:22
    1040:	00000913          	li	s2,0
D:\Files\Pango\FPGA_prjs\picorv32\Software\pico_test_1\Debug/../src/start.S:23
    1044:	00000993          	li	s3,0
D:\Files\Pango\FPGA_prjs\picorv32\Software\pico_test_1\Debug/../src/start.S:24
    1048:	00000a13          	li	s4,0
D:\Files\Pango\FPGA_prjs\picorv32\Software\pico_test_1\Debug/../src/start.S:25
    104c:	00000a93          	li	s5,0
D:\Files\Pango\FPGA_prjs\picorv32\Software\pico_test_1\Debug/../src/start.S:26
    1050:	00000b13          	li	s6,0
D:\Files\Pango\FPGA_prjs\picorv32\Software\pico_test_1\Debug/../src/start.S:27
    1054:	00000b93          	li	s7,0
D:\Files\Pango\FPGA_prjs\picorv32\Software\pico_test_1\Debug/../src/start.S:28
    1058:	00000c13          	li	s8,0
D:\Files\Pango\FPGA_prjs\picorv32\Software\pico_test_1\Debug/../src/start.S:29
    105c:	00000c93          	li	s9,0
D:\Files\Pango\FPGA_prjs\picorv32\Software\pico_test_1\Debug/../src/start.S:30
    1060:	00000d13          	li	s10,0
D:\Files\Pango\FPGA_prjs\picorv32\Software\pico_test_1\Debug/../src/start.S:31
    1064:	00000d93          	li	s11,0
D:\Files\Pango\FPGA_prjs\picorv32\Software\pico_test_1\Debug/../src/start.S:32
    1068:	00000e13          	li	t3,0
D:\Files\Pango\FPGA_prjs\picorv32\Software\pico_test_1\Debug/../src/start.S:33
    106c:	00000e93          	li	t4,0
D:\Files\Pango\FPGA_prjs\picorv32\Software\pico_test_1\Debug/../src/start.S:34
    1070:	00000f13          	li	t5,0
D:\Files\Pango\FPGA_prjs\picorv32\Software\pico_test_1\Debug/../src/start.S:35
    1074:	00000f93          	li	t6,0
D:\Files\Pango\FPGA_prjs\picorv32\Software\pico_test_1\Debug/../src/start.S:38
    1078:	4501                	li	a0,0

0000107a <setmemloop>:
setmemloop():
D:\Files\Pango\FPGA_prjs\picorv32\Software\pico_test_1\Debug/../src/start.S:40
    107a:	c108                	sw	a0,0(a0)
D:\Files\Pango\FPGA_prjs\picorv32\Software\pico_test_1\Debug/../src/start.S:41
    107c:	0511                	addi	a0,a0,4
D:\Files\Pango\FPGA_prjs\picorv32\Software\pico_test_1\Debug/../src/start.S:42
    107e:	fe254ee3          	blt	a0,sp,107a <setmemloop>
D:\Files\Pango\FPGA_prjs\picorv32\Software\pico_test_1\Debug/../src/start.S:45
    1082:	00002517          	auipc	a0,0x2
    1086:	8f250513          	addi	a0,a0,-1806 # 2974 <_etext>
D:\Files\Pango\FPGA_prjs\picorv32\Software\pico_test_1\Debug/../src/start.S:46
    108a:	00000593          	li	a1,0
D:\Files\Pango\FPGA_prjs\picorv32\Software\pico_test_1\Debug/../src/start.S:47
    108e:	00000613          	li	a2,0
D:\Files\Pango\FPGA_prjs\picorv32\Software\pico_test_1\Debug/../src/start.S:48
    1092:	00c5d863          	ble	a2,a1,10a2 <end_init_data>

00001096 <loop_init_data>:
loop_init_data():
D:\Files\Pango\FPGA_prjs\picorv32\Software\pico_test_1\Debug/../src/start.S:50
    1096:	4114                	lw	a3,0(a0)
D:\Files\Pango\FPGA_prjs\picorv32\Software\pico_test_1\Debug/../src/start.S:51
    1098:	c194                	sw	a3,0(a1)
D:\Files\Pango\FPGA_prjs\picorv32\Software\pico_test_1\Debug/../src/start.S:52
    109a:	0511                	addi	a0,a0,4
D:\Files\Pango\FPGA_prjs\picorv32\Software\pico_test_1\Debug/../src/start.S:53
    109c:	0591                	addi	a1,a1,4
D:\Files\Pango\FPGA_prjs\picorv32\Software\pico_test_1\Debug/../src/start.S:54
    109e:	fec5cce3          	blt	a1,a2,1096 <loop_init_data>

000010a2 <end_init_data>:
end_init_data():
D:\Files\Pango\FPGA_prjs\picorv32\Software\pico_test_1\Debug/../src/start.S:58
    10a2:	00000513          	li	a0,0
D:\Files\Pango\FPGA_prjs\picorv32\Software\pico_test_1\Debug/../src/start.S:59
    10a6:	00400593          	li	a1,4
D:\Files\Pango\FPGA_prjs\picorv32\Software\pico_test_1\Debug/../src/start.S:60
    10aa:	00b55763          	ble	a1,a0,10b8 <end_init_bss>

000010ae <loop_init_bss>:
loop_init_bss():
D:\Files\Pango\FPGA_prjs\picorv32\Software\pico_test_1\Debug/../src/start.S:62
    10ae:	00052023          	sw	zero,0(a0)
D:\Files\Pango\FPGA_prjs\picorv32\Software\pico_test_1\Debug/../src/start.S:63
    10b2:	0511                	addi	a0,a0,4
D:\Files\Pango\FPGA_prjs\picorv32\Software\pico_test_1\Debug/../src/start.S:64
    10b4:	feb54de3          	blt	a0,a1,10ae <loop_init_bss>

000010b8 <end_init_bss>:
end_init_bss():
D:\Files\Pango\FPGA_prjs\picorv32\Software\pico_test_1\Debug/../src/start.S:69
    10b8:	088000ef          	jal	ra,1140 <main>
D:\Files\Pango\FPGA_prjs\picorv32\Software\pico_test_1\Debug/../src/start.S:72
    10bc:	a001                	j	10bc <end_init_bss+0x4>
D:\Files\Pango\FPGA_prjs\picorv32\Software\pico_test_1\Debug/../src/start.S:75
    10be:	9002                	ebreak

000010c0 <led_blink>:
led_blink():
D:\Files\Pango\git\Pango-FPGA\picorv32\software\pico_test_1\Debug/../src/main.c:30
 ** 返回参数：无
 ********************************************************************/
void led_blink(void)
{
	int cnt = 0;
	temp_data = *gpio_point;
    10c0:	67a1                	lui	a5,0x8
    10c2:	5b98                	lw	a4,48(a5)
    10c4:	000007b7          	lui	a5,0x0
D:\Files\Pango\git\Pango-FPGA\picorv32\software\pico_test_1\Debug/../src/main.c:28
{
    10c8:	1101                	addi	sp,sp,-32
D:\Files\Pango\git\Pango-FPGA\picorv32\software\pico_test_1\Debug/../src/main.c:30
	temp_data = *gpio_point;
    10ca:	00e7a023          	sw	a4,0(a5) # 0 <_edata>
D:\Files\Pango\git\Pango-FPGA\picorv32\software\pico_test_1\Debug/../src/main.c:31
	if(GPIO_DATA == temp_data)
    10ce:	67ad                	lui	a5,0xb
D:\Files\Pango\git\Pango-FPGA\picorv32\software\pico_test_1\Debug/../src/main.c:28
{
    10d0:	ce06                	sw	ra,28(sp)
    10d2:	cc22                	sw	s0,24(sp)
    10d4:	ca26                	sw	s1,20(sp)
    10d6:	c84a                	sw	s2,16(sp)
    10d8:	c64e                	sw	s3,12(sp)
    10da:	c452                	sw	s4,8(sp)
D:\Files\Pango\git\Pango-FPGA\picorv32\software\pico_test_1\Debug/../src/main.c:31
	if(GPIO_DATA == temp_data)
    10dc:	a5578793          	addi	a5,a5,-1451 # aa55 <_etext+0x80e1>
    10e0:	04f70a63          	beq	a4,a5,1134 <led_blink+0x74>
D:\Files\Pango\git\Pango-FPGA\picorv32\software\pico_test_1\Debug/../src/main.c:37
	{
		printk("gpio success\n");
	}
	else
	{
		printk("gpio failed\n");
    10e4:	00002537          	lui	a0,0x2
    10e8:	61c50513          	addi	a0,a0,1564 # 261c <__clzsi2+0xa4>
    10ec:	2ca9                	jal	1346 <printk>
D:\Files\Pango\git\Pango-FPGA\picorv32\software\pico_test_1\Debug/../src/main.c:40
	}

	led_address = 0xff;
    10ee:	67a1                	lui	a5,0x8
    10f0:	0ff00713          	li	a4,255
D:\Files\Pango\git\Pango-FPGA\picorv32\software\pico_test_1\Debug/../src/main.c:44
	while(1)
	{
		cnt++;
		if(cnt == LED_DELAY / 2)
    10f4:	00262437          	lui	s0,0x262
D:\Files\Pango\git\Pango-FPGA\picorv32\software\pico_test_1\Debug/../src/main.c:48
		{
			led_address = 0x00;
		}
		else if(cnt == LED_DELAY)
    10f8:	004c54b7          	lui	s1,0x4c5
D:\Files\Pango\git\Pango-FPGA\picorv32\software\pico_test_1\Debug/../src/main.c:40
	led_address = 0xff;
    10fc:	d398                	sw	a4,32(a5)
    10fe:	00002a37          	lui	s4,0x2
D:\Files\Pango\git\Pango-FPGA\picorv32\software\pico_test_1\Debug/../src/main.c:29
	int cnt = 0;
    1102:	4781                	li	a5,0
D:\Files\Pango\git\Pango-FPGA\picorv32\software\pico_test_1\Debug/../src/main.c:44
		if(cnt == LED_DELAY / 2)
    1104:	5a040413          	addi	s0,s0,1440 # 2625a0 <_etext+0x25fc2c>
D:\Files\Pango\git\Pango-FPGA\picorv32\software\pico_test_1\Debug/../src/main.c:48
		else if(cnt == LED_DELAY)
    1108:	b4048493          	addi	s1,s1,-1216 # 4c4b40 <_etext+0x4c21cc>
D:\Files\Pango\git\Pango-FPGA\picorv32\software\pico_test_1\Debug/../src/main.c:51
		{
			cnt = 0;
			led_address = 0xff;
    110c:	6921                	lui	s2,0x8
    110e:	0ff00993          	li	s3,255
D:\Files\Pango\git\Pango-FPGA\picorv32\software\pico_test_1\Debug/../src/main.c:43
		cnt++;
    1112:	0785                	addi	a5,a5,1
D:\Files\Pango\git\Pango-FPGA\picorv32\software\pico_test_1\Debug/../src/main.c:44
		if(cnt == LED_DELAY / 2)
    1114:	00878d63          	beq	a5,s0,112e <led_blink+0x6e>
D:\Files\Pango\git\Pango-FPGA\picorv32\software\pico_test_1\Debug/../src/main.c:48
		else if(cnt == LED_DELAY)
    1118:	fe979de3          	bne	a5,s1,1112 <led_blink+0x52>
D:\Files\Pango\git\Pango-FPGA\picorv32\software\pico_test_1\Debug/../src/main.c:51
			led_address = 0xff;
    111c:	03392023          	sw	s3,32(s2) # 8020 <_etext+0x56ac>
D:\Files\Pango\git\Pango-FPGA\picorv32\software\pico_test_1\Debug/../src/main.c:52
			printk("led_blink ok\n");
    1120:	62ca0513          	addi	a0,s4,1580 # 262c <__clzsi2+0xb4>
    1124:	240d                	jal	1346 <printk>
D:\Files\Pango\git\Pango-FPGA\picorv32\software\pico_test_1\Debug/../src/main.c:50
			cnt = 0;
    1126:	4781                	li	a5,0
D:\Files\Pango\git\Pango-FPGA\picorv32\software\pico_test_1\Debug/../src/main.c:43
		cnt++;
    1128:	0785                	addi	a5,a5,1
D:\Files\Pango\git\Pango-FPGA\picorv32\software\pico_test_1\Debug/../src/main.c:44
		if(cnt == LED_DELAY / 2)
    112a:	fe8797e3          	bne	a5,s0,1118 <led_blink+0x58>
D:\Files\Pango\git\Pango-FPGA\picorv32\software\pico_test_1\Debug/../src/main.c:46
			led_address = 0x00;
    112e:	02092023          	sw	zero,32(s2)
    1132:	b7c5                	j	1112 <led_blink+0x52>
D:\Files\Pango\git\Pango-FPGA\picorv32\software\pico_test_1\Debug/../src/main.c:33
		printk("gpio success\n");
    1134:	00002537          	lui	a0,0x2
    1138:	60c50513          	addi	a0,a0,1548 # 260c <__clzsi2+0x94>
    113c:	2429                	jal	1346 <printk>
    113e:	bf45                	j	10ee <led_blink+0x2e>

00001140 <main>:
main():
D:\Files\Pango\git\Pango-FPGA\picorv32\software\pico_test_1\Debug/../src/main.c:58
		}
	}
}

int main(void)
{
    1140:	1141                	addi	sp,sp,-16
D:\Files\Pango\git\Pango-FPGA\picorv32\software\pico_test_1\Debug/../src/main.c:59
	reg_uart_clkdiv = BAUND_9600;
    1142:	678d                	lui	a5,0x3
D:\Files\Pango\git\Pango-FPGA\picorv32\software\pico_test_1\Debug/../src/main.c:58
{
    1144:	c606                	sw	ra,12(sp)
D:\Files\Pango\git\Pango-FPGA\picorv32\software\pico_test_1\Debug/../src/main.c:59
	reg_uart_clkdiv = BAUND_9600;
    1146:	6721                	lui	a4,0x8
    1148:	8b078793          	addi	a5,a5,-1872 # 28b0 <__clz_tab+0x3c>
D:\Files\Pango\git\Pango-FPGA\picorv32\software\pico_test_1\Debug/../src/main.c:61

	printk("Hello Risc-V Pango 2019\n");
    114c:	00002537          	lui	a0,0x2
D:\Files\Pango\git\Pango-FPGA\picorv32\software\pico_test_1\Debug/../src/main.c:59
	reg_uart_clkdiv = BAUND_9600;
    1150:	c31c                	sw	a5,0(a4)
D:\Files\Pango\git\Pango-FPGA\picorv32\software\pico_test_1\Debug/../src/main.c:61
	printk("Hello Risc-V Pango 2019\n");
    1152:	65050513          	addi	a0,a0,1616 # 2650 <__clzsi2+0xd8>
    1156:	2ac5                	jal	1346 <printk>
D:\Files\Pango\git\Pango-FPGA\picorv32\software\pico_test_1\Debug/../src/main.c:62
	printk("test data = %d,%f,%s,0x = %x\n", 100,33.456,"2019",100);
    1158:	000027b7          	lui	a5,0x2
    115c:	6407a603          	lw	a2,1600(a5) # 2640 <__clzsi2+0xc8>
    1160:	6447a683          	lw	a3,1604(a5)
    1164:	00002737          	lui	a4,0x2
    1168:	00002537          	lui	a0,0x2
    116c:	06400793          	li	a5,100
    1170:	66c70713          	addi	a4,a4,1644 # 266c <__clzsi2+0xf4>
    1174:	06400593          	li	a1,100
    1178:	67450513          	addi	a0,a0,1652 # 2674 <__clzsi2+0xfc>
    117c:	22e9                	jal	1346 <printk>
D:\Files\Pango\git\Pango-FPGA\picorv32\software\pico_test_1\Debug/../src/main.c:63
	printk("simple compute : 50*10 = %d,100/3 = %f,100%3 = %d\n", 50*10,(double)100/3,(int)100%3);
    117e:	000027b7          	lui	a5,0x2
    1182:	6487a603          	lw	a2,1608(a5) # 2648 <__clzsi2+0xd0>
    1186:	64c7a683          	lw	a3,1612(a5)
    118a:	00002537          	lui	a0,0x2
    118e:	4705                	li	a4,1
    1190:	1f400593          	li	a1,500
    1194:	69450513          	addi	a0,a0,1684 # 2694 <__clzsi2+0x11c>
    1198:	227d                	jal	1346 <printk>
D:\Files\Pango\git\Pango-FPGA\picorv32\software\pico_test_1\Debug/../src/main.c:64
	led_blink();
    119a:	371d                	jal	10c0 <led_blink>

0000119c <SPI_CS_Enable>:
SPI_CS_Enable():
D:\Files\Pango\FPGA_prjs\picorv32\Software\pico_test_1\Debug/../src/spi.c:6
    119c:	67a1                	lui	a5,0x8
    119e:	0407a023          	sw	zero,64(a5) # 8040 <_etext+0x56cc>
D:\Files\Pango\FPGA_prjs\picorv32\Software\pico_test_1\Debug/../src/spi.c:7
    11a2:	8082                	ret

000011a4 <SPI_CS_Disable>:
SPI_CS_Disable():
D:\Files\Pango\FPGA_prjs\picorv32\Software\pico_test_1\Debug/../src/spi.c:9
    11a4:	67a1                	lui	a5,0x8
    11a6:	4705                	li	a4,1
    11a8:	c3b8                	sw	a4,64(a5)
D:\Files\Pango\FPGA_prjs\picorv32\Software\pico_test_1\Debug/../src/spi.c:10
    11aa:	8082                	ret

000011ac <SPI_WriteData>:
SPI_WriteData():
D:\Files\Pango\FPGA_prjs\picorv32\Software\pico_test_1\Debug/../src/spi.c:12
    11ac:	67a1                	lui	a5,0x8
    11ae:	c3e8                	sw	a0,68(a5)
D:\Files\Pango\FPGA_prjs\picorv32\Software\pico_test_1\Debug/../src/spi.c:13
    11b0:	8082                	ret

000011b2 <SPI_ReadData>:
SPI_ReadData():
D:\Files\Pango\FPGA_prjs\picorv32\Software\pico_test_1\Debug/../src/spi.c:15
    11b2:	67a1                	lui	a5,0x8
    11b4:	47a8                	lw	a0,72(a5)
D:\Files\Pango\FPGA_prjs\picorv32\Software\pico_test_1\Debug/../src/spi.c:16
    11b6:	0ff57513          	andi	a0,a0,255
    11ba:	8082                	ret

000011bc <SPI_ReadWrite>:
SPI_WriteData():
D:\Files\Pango\FPGA_prjs\picorv32\Software\pico_test_1\Debug/../src/spi.c:12
    11bc:	67a1                	lui	a5,0x8
    11be:	c3e8                	sw	a0,68(a5)
SPI_ReadData():
D:\Files\Pango\FPGA_prjs\picorv32\Software\pico_test_1\Debug/../src/spi.c:15
    11c0:	47a8                	lw	a0,72(a5)
SPI_ReadWrite():
D:\Files\Pango\FPGA_prjs\picorv32\Software\pico_test_1\Debug/../src/spi.c:22
    11c2:	0ff57513          	andi	a0,a0,255
    11c6:	8082                	ret

000011c8 <print_num>:
print_num():
D:\Files\Pango\FPGA_prjs\picorv32\Software\pico_test_1\Debug/../src/uart.c:14
    11c8:	e111                	bnez	a0,11cc <print_num+0x4>
D:\Files\Pango\FPGA_prjs\picorv32\Software\pico_test_1\Debug/../src/uart.c:20
    11ca:	8082                	ret
    11cc:	a009                	j	11ce <print_num.part.0>

000011ce <print_num.part.0>:
D:\Files\Pango\FPGA_prjs\picorv32\Software\pico_test_1\Debug/../src/uart.c:12
    11ce:	1141                	addi	sp,sp,-16
    11d0:	c422                	sw	s0,8(sp)
    11d2:	842a                	mv	s0,a0
D:\Files\Pango\FPGA_prjs\picorv32\Software\pico_test_1\Debug/../src/uart.c:18
    11d4:	02b55533          	divu	a0,a0,a1
D:\Files\Pango\FPGA_prjs\picorv32\Software\pico_test_1\Debug/../src/uart.c:12
    11d8:	c226                	sw	s1,4(sp)
    11da:	84ae                	mv	s1,a1
    11dc:	c606                	sw	ra,12(sp)
D:\Files\Pango\FPGA_prjs\picorv32\Software\pico_test_1\Debug/../src/uart.c:18
    11de:	37ed                	jal	11c8 <print_num>
D:\Files\Pango\FPGA_prjs\picorv32\Software\pico_test_1\Debug/../src/uart.c:19
    11e0:	02947433          	remu	s0,s0,s1
    11e4:	000037b7          	lui	a5,0x3
    11e8:	82078793          	addi	a5,a5,-2016 # 2820 <__clzsi2+0x2a8>
put_char():
D:\Files\Pango\FPGA_prjs\picorv32\Software\pico_test_1\Debug/../src/uart.c:31
    11ec:	4729                	li	a4,10
print_num():
D:\Files\Pango\FPGA_prjs\picorv32\Software\pico_test_1\Debug/../src/uart.c:19
    11ee:	943e                	add	s0,s0,a5
    11f0:	00040783          	lb	a5,0(s0)
put_char():
D:\Files\Pango\FPGA_prjs\picorv32\Software\pico_test_1\Debug/../src/uart.c:31
    11f4:	00e78963          	beq	a5,a4,1206 <print_num.part.0+0x38>
print_num():
D:\Files\Pango\FPGA_prjs\picorv32\Software\pico_test_1\Debug/../src/uart.c:20
    11f8:	40b2                	lw	ra,12(sp)
    11fa:	4422                	lw	s0,8(sp)
put_char():
D:\Files\Pango\FPGA_prjs\picorv32\Software\pico_test_1\Debug/../src/uart.c:33
    11fc:	6721                	lui	a4,0x8
    11fe:	cb1c                	sw	a5,16(a4)
print_num():
D:\Files\Pango\FPGA_prjs\picorv32\Software\pico_test_1\Debug/../src/uart.c:20
    1200:	4492                	lw	s1,4(sp)
    1202:	0141                	addi	sp,sp,16
    1204:	8082                	ret
put_char():
D:\Files\Pango\FPGA_prjs\picorv32\Software\pico_test_1\Debug/../src/uart.c:33
    1206:	6721                	lui	a4,0x8
print_num():
D:\Files\Pango\FPGA_prjs\picorv32\Software\pico_test_1\Debug/../src/uart.c:20
    1208:	40b2                	lw	ra,12(sp)
    120a:	4422                	lw	s0,8(sp)
put_char():
D:\Files\Pango\FPGA_prjs\picorv32\Software\pico_test_1\Debug/../src/uart.c:33
    120c:	46b5                	li	a3,13
    120e:	cb14                	sw	a3,16(a4)
    1210:	6721                	lui	a4,0x8
    1212:	cb1c                	sw	a5,16(a4)
print_num():
D:\Files\Pango\FPGA_prjs\picorv32\Software\pico_test_1\Debug/../src/uart.c:20
    1214:	4492                	lw	s1,4(sp)
    1216:	0141                	addi	sp,sp,16
    1218:	8082                	ret

0000121a <put_char>:
put_char():
D:\Files\Pango\FPGA_prjs\picorv32\Software\pico_test_1\Debug/../src/uart.c:30
    121a:	1141                	addi	sp,sp,-16
    121c:	c422                	sw	s0,8(sp)
    121e:	c606                	sw	ra,12(sp)
D:\Files\Pango\FPGA_prjs\picorv32\Software\pico_test_1\Debug/../src/uart.c:31
    1220:	47a9                	li	a5,10
D:\Files\Pango\FPGA_prjs\picorv32\Software\pico_test_1\Debug/../src/uart.c:30
    1222:	842a                	mv	s0,a0
D:\Files\Pango\FPGA_prjs\picorv32\Software\pico_test_1\Debug/../src/uart.c:31
    1224:	00f50863          	beq	a0,a5,1234 <put_char+0x1a>
D:\Files\Pango\FPGA_prjs\picorv32\Software\pico_test_1\Debug/../src/uart.c:33
    1228:	67a1                	lui	a5,0x8
    122a:	cb80                	sw	s0,16(a5)
D:\Files\Pango\FPGA_prjs\picorv32\Software\pico_test_1\Debug/../src/uart.c:34
    122c:	40b2                	lw	ra,12(sp)
    122e:	4422                	lw	s0,8(sp)
    1230:	0141                	addi	sp,sp,16
    1232:	8082                	ret
D:\Files\Pango\FPGA_prjs\picorv32\Software\pico_test_1\Debug/../src/uart.c:32
    1234:	4535                	li	a0,13
    1236:	37d5                	jal	121a <put_char>
    1238:	bfc5                	j	1228 <put_char+0xe>

0000123a <print_str>:
print_str():
D:\Files\Pango\FPGA_prjs\picorv32\Software\pico_test_1\Debug/../src/uart.c:45
    123a:	00050783          	lb	a5,0(a0)
    123e:	c38d                	beqz	a5,1260 <print_str+0x26>
put_char():
D:\Files\Pango\FPGA_prjs\picorv32\Software\pico_test_1\Debug/../src/uart.c:31
    1240:	46a9                	li	a3,10
D:\Files\Pango\FPGA_prjs\picorv32\Software\pico_test_1\Debug/../src/uart.c:33
    1242:	6721                	lui	a4,0x8
    1244:	4635                	li	a2,13
    1246:	a029                	j	1250 <print_str+0x16>
    1248:	cb1c                	sw	a5,16(a4)
print_str():
D:\Files\Pango\FPGA_prjs\picorv32\Software\pico_test_1\Debug/../src/uart.c:45
    124a:	00050783          	lb	a5,0(a0)
    124e:	cb89                	beqz	a5,1260 <print_str+0x26>
D:\Files\Pango\FPGA_prjs\picorv32\Software\pico_test_1\Debug/../src/uart.c:46
    1250:	0505                	addi	a0,a0,1
put_char():
D:\Files\Pango\FPGA_prjs\picorv32\Software\pico_test_1\Debug/../src/uart.c:31
    1252:	fed79be3          	bne	a5,a3,1248 <print_str+0xe>
D:\Files\Pango\FPGA_prjs\picorv32\Software\pico_test_1\Debug/../src/uart.c:33
    1256:	cb10                	sw	a2,16(a4)
    1258:	cb1c                	sw	a5,16(a4)
print_str():
D:\Files\Pango\FPGA_prjs\picorv32\Software\pico_test_1\Debug/../src/uart.c:45
    125a:	00050783          	lb	a5,0(a0)
    125e:	fbed                	bnez	a5,1250 <print_str+0x16>
D:\Files\Pango\FPGA_prjs\picorv32\Software\pico_test_1\Debug/../src/uart.c:47
    1260:	8082                	ret

00001262 <print_hex>:
print_hex():
D:\Files\Pango\FPGA_prjs\picorv32\Software\pico_test_1\Debug/../src/uart.c:58
    1262:	000036b7          	lui	a3,0x3
D:\Files\Pango\FPGA_prjs\picorv32\Software\pico_test_1\Debug/../src/uart.c:59
    1266:	471d                	li	a4,7
    1268:	82068693          	addi	a3,a3,-2016 # 2820 <__clzsi2+0x2a8>
D:\Files\Pango\FPGA_prjs\picorv32\Software\pico_test_1\Debug/../src/uart.c:62
    126c:	03000893          	li	a7,48
put_char():
D:\Files\Pango\FPGA_prjs\picorv32\Software\pico_test_1\Debug/../src/uart.c:33
    1270:	6621                	lui	a2,0x8
D:\Files\Pango\FPGA_prjs\picorv32\Software\pico_test_1\Debug/../src/uart.c:31
    1272:	4329                	li	t1,10
D:\Files\Pango\FPGA_prjs\picorv32\Software\pico_test_1\Debug/../src/uart.c:33
    1274:	4e35                	li	t3,13
print_hex():
D:\Files\Pango\FPGA_prjs\picorv32\Software\pico_test_1\Debug/../src/uart.c:59
    1276:	587d                	li	a6,-1
    1278:	a801                	j	1288 <print_hex+0x26>
put_char():
D:\Files\Pango\FPGA_prjs\picorv32\Software\pico_test_1\Debug/../src/uart.c:31
    127a:	02678763          	beq	a5,t1,12a8 <print_hex+0x46>
D:\Files\Pango\FPGA_prjs\picorv32\Software\pico_test_1\Debug/../src/uart.c:33
    127e:	85ba                	mv	a1,a4
    1280:	ca1c                	sw	a5,16(a2)
print_hex():
D:\Files\Pango\FPGA_prjs\picorv32\Software\pico_test_1\Debug/../src/uart.c:59
    1282:	177d                	addi	a4,a4,-1
    1284:	03070163          	beq	a4,a6,12a6 <print_hex+0x44>
D:\Files\Pango\FPGA_prjs\picorv32\Software\pico_test_1\Debug/../src/uart.c:61
    1288:	00271793          	slli	a5,a4,0x2
    128c:	00f557b3          	srl	a5,a0,a5
    1290:	8bbd                	andi	a5,a5,15
    1292:	97b6                	add	a5,a5,a3
    1294:	00078783          	lb	a5,0(a5) # 8000 <_etext+0x568c>
D:\Files\Pango\FPGA_prjs\picorv32\Software\pico_test_1\Debug/../src/uart.c:62
    1298:	ff1791e3          	bne	a5,a7,127a <print_hex+0x18>
D:\Files\Pango\FPGA_prjs\picorv32\Software\pico_test_1\Debug/../src/uart.c:62 (discriminator 1)
    129c:	feb741e3          	blt	a4,a1,127e <print_hex+0x1c>
D:\Files\Pango\FPGA_prjs\picorv32\Software\pico_test_1\Debug/../src/uart.c:59
    12a0:	177d                	addi	a4,a4,-1
    12a2:	ff0713e3          	bne	a4,a6,1288 <print_hex+0x26>
D:\Files\Pango\FPGA_prjs\picorv32\Software\pico_test_1\Debug/../src/uart.c:67
    12a6:	8082                	ret
put_char():
D:\Files\Pango\FPGA_prjs\picorv32\Software\pico_test_1\Debug/../src/uart.c:33
    12a8:	01c62823          	sw	t3,16(a2) # 8010 <_etext+0x569c>
    12ac:	bfc9                	j	127e <print_hex+0x1c>

000012ae <print_hex2>:
print_hex2():
D:\Files\Pango\FPGA_prjs\picorv32\Software\pico_test_1\Debug/../src/uart.c:78
    12ae:	e511                	bnez	a0,12ba <print_hex2+0xc>
put_char():
D:\Files\Pango\FPGA_prjs\picorv32\Software\pico_test_1\Debug/../src/uart.c:33
    12b0:	67a1                	lui	a5,0x8
    12b2:	03000713          	li	a4,48
    12b6:	cb98                	sw	a4,16(a5)
print_hex2():
D:\Files\Pango\FPGA_prjs\picorv32\Software\pico_test_1\Debug/../src/uart.c:87
    12b8:	8082                	ret
print_num():
    12ba:	45c1                	li	a1,16
    12bc:	bf09                	j	11ce <print_num.part.0>

000012be <print_dec>:
print_dec():
D:\Files\Pango\FPGA_prjs\picorv32\Software\pico_test_1\Debug/../src/uart.c:97
    12be:	e511                	bnez	a0,12ca <print_dec+0xc>
put_char():
D:\Files\Pango\FPGA_prjs\picorv32\Software\pico_test_1\Debug/../src/uart.c:33
    12c0:	67a1                	lui	a5,0x8
    12c2:	03000713          	li	a4,48
    12c6:	cb98                	sw	a4,16(a5)
print_dec():
D:\Files\Pango\FPGA_prjs\picorv32\Software\pico_test_1\Debug/../src/uart.c:106
    12c8:	8082                	ret
print_num():
    12ca:	45a9                	li	a1,10
    12cc:	b709                	j	11ce <print_num.part.0>

000012ce <print_flt>:
print_flt():
D:\Files\Pango\FPGA_prjs\picorv32\Software\pico_test_1\Debug/../src/uart.c:116
    12ce:	1101                	addi	sp,sp,-32
    12d0:	cc22                	sw	s0,24(sp)
    12d2:	c84a                	sw	s2,16(sp)
    12d4:	c64e                	sw	s3,12(sp)
    12d6:	ce06                	sw	ra,28(sp)
    12d8:	ca26                	sw	s1,20(sp)
    12da:	892a                	mv	s2,a0
    12dc:	89ae                	mv	s3,a1
D:\Files\Pango\FPGA_prjs\picorv32\Software\pico_test_1\Debug/../src/uart.c:120
    12de:	156010ef          	jal	ra,2434 <__fixdfsi>
    12e2:	842a                	mv	s0,a0
print_dec():
D:\Files\Pango\FPGA_prjs\picorv32\Software\pico_test_1\Debug/../src/uart.c:97
    12e4:	ed31                	bnez	a0,1340 <print_flt+0x72>
put_char():
D:\Files\Pango\FPGA_prjs\picorv32\Software\pico_test_1\Debug/../src/uart.c:33
    12e6:	67a1                	lui	a5,0x8
    12e8:	03000713          	li	a4,48
    12ec:	cb98                	sw	a4,16(a5)
    12ee:	02e00793          	li	a5,46
    12f2:	64a1                	lui	s1,0x8
    12f4:	c89c                	sw	a5,16(s1)
print_flt():
D:\Files\Pango\FPGA_prjs\picorv32\Software\pico_test_1\Debug/../src/uart.c:123
    12f6:	8522                	mv	a0,s0
    12f8:	1c0010ef          	jal	ra,24b8 <__floatunsidf>
    12fc:	862a                	mv	a2,a0
    12fe:	86ae                	mv	a3,a1
    1300:	854a                	mv	a0,s2
    1302:	85ce                	mv	a1,s3
    1304:	0b1000ef          	jal	ra,1bb4 <__subdf3>
D:\Files\Pango\FPGA_prjs\picorv32\Software\pico_test_1\Debug/../src/uart.c:124
    1308:	000037b7          	lui	a5,0x3
    130c:	8187a603          	lw	a2,-2024(a5) # 2818 <__clzsi2+0x2a0>
    1310:	81c7a683          	lw	a3,-2020(a5)
    1314:	2c11                	jal	1528 <__muldf3>
    1316:	11e010ef          	jal	ra,2434 <__fixdfsi>
print_dec():
D:\Files\Pango\FPGA_prjs\picorv32\Software\pico_test_1\Debug/../src/uart.c:97
    131a:	e919                	bnez	a0,1330 <print_flt+0x62>
print_flt():
D:\Files\Pango\FPGA_prjs\picorv32\Software\pico_test_1\Debug/../src/uart.c:126
    131c:	40f2                	lw	ra,28(sp)
    131e:	4462                	lw	s0,24(sp)
put_char():
D:\Files\Pango\FPGA_prjs\picorv32\Software\pico_test_1\Debug/../src/uart.c:33
    1320:	03000793          	li	a5,48
    1324:	c89c                	sw	a5,16(s1)
print_flt():
D:\Files\Pango\FPGA_prjs\picorv32\Software\pico_test_1\Debug/../src/uart.c:126
    1326:	4942                	lw	s2,16(sp)
    1328:	44d2                	lw	s1,20(sp)
    132a:	49b2                	lw	s3,12(sp)
    132c:	6105                	addi	sp,sp,32
    132e:	8082                	ret
    1330:	4462                	lw	s0,24(sp)
    1332:	40f2                	lw	ra,28(sp)
    1334:	44d2                	lw	s1,20(sp)
    1336:	4942                	lw	s2,16(sp)
    1338:	49b2                	lw	s3,12(sp)
print_num():
    133a:	45a9                	li	a1,10
print_flt():
    133c:	6105                	addi	sp,sp,32
print_num():
    133e:	bd41                	j	11ce <print_num.part.0>
    1340:	45a9                	li	a1,10
    1342:	3571                	jal	11ce <print_num.part.0>
    1344:	b76d                	j	12ee <print_flt+0x20>

00001346 <printk>:
printk():
D:\Files\Pango\FPGA_prjs\picorv32\Software\pico_test_1\Debug/../src/uart.c:136
    1346:	715d                	addi	sp,sp,-80
    1348:	c0ba                	sw	a4,64(sp)
    134a:	d606                	sw	ra,44(sp)
    134c:	d422                	sw	s0,40(sp)
    134e:	d226                	sw	s1,36(sp)
    1350:	d04a                	sw	s2,32(sp)
    1352:	ce4e                	sw	s3,28(sp)
    1354:	cc52                	sw	s4,24(sp)
    1356:	ca56                	sw	s5,20(sp)
    1358:	c85a                	sw	s6,16(sp)
    135a:	da2e                	sw	a1,52(sp)
    135c:	dc32                	sw	a2,56(sp)
    135e:	de36                	sw	a3,60(sp)
    1360:	c2be                	sw	a5,68(sp)
    1362:	c4c2                	sw	a6,72(sp)
    1364:	c6c6                	sw	a7,76(sp)
D:\Files\Pango\FPGA_prjs\picorv32\Software\pico_test_1\Debug/../src/uart.c:143
    1366:	00050783          	lb	a5,0(a0)
D:\Files\Pango\FPGA_prjs\picorv32\Software\pico_test_1\Debug/../src/uart.c:140
    136a:	1858                	addi	a4,sp,52
    136c:	c63a                	sw	a4,12(sp)
D:\Files\Pango\FPGA_prjs\picorv32\Software\pico_test_1\Debug/../src/uart.c:143
    136e:	c3b9                	beqz	a5,13b4 <printk+0x6e>
D:\Files\Pango\FPGA_prjs\picorv32\Software\pico_test_1\Debug/../src/uart.c:149
    1370:	6a89                	lui	s5,0x2
    1372:	84aa                	mv	s1,a0
D:\Files\Pango\FPGA_prjs\picorv32\Software\pico_test_1\Debug/../src/uart.c:145
    1374:	4929                	li	s2,10
put_char():
D:\Files\Pango\FPGA_prjs\picorv32\Software\pico_test_1\Debug/../src/uart.c:33
    1376:	69a1                	lui	s3,0x8
    1378:	4b35                	li	s6,13
printk():
D:\Files\Pango\FPGA_prjs\picorv32\Software\pico_test_1\Debug/../src/uart.c:145
    137a:	02500a13          	li	s4,37
D:\Files\Pango\FPGA_prjs\picorv32\Software\pico_test_1\Debug/../src/uart.c:149
    137e:	6c8a8a93          	addi	s5,s5,1736 # 26c8 <__clzsi2+0x150>
    1382:	a819                	j	1398 <printk+0x52>
D:\Files\Pango\FPGA_prjs\picorv32\Software\pico_test_1\Debug/../src/uart.c:145
    1384:	05478263          	beq	a5,s4,13c8 <printk+0x82>
put_char():
D:\Files\Pango\FPGA_prjs\picorv32\Software\pico_test_1\Debug/../src/uart.c:33
    1388:	8722                	mv	a4,s0
    138a:	00f9a823          	sw	a5,16(s3) # 8010 <_etext+0x569c>
    138e:	8426                	mv	s0,s1
    1390:	84ba                	mv	s1,a4
printk():
D:\Files\Pango\FPGA_prjs\picorv32\Software\pico_test_1\Debug/../src/uart.c:143
    1392:	00140783          	lb	a5,1(s0)
    1396:	cf99                	beqz	a5,13b4 <printk+0x6e>
    1398:	00148413          	addi	s0,s1,1 # 8001 <_etext+0x568d>
D:\Files\Pango\FPGA_prjs\picorv32\Software\pico_test_1\Debug/../src/uart.c:145
    139c:	ff2794e3          	bne	a5,s2,1384 <printk+0x3e>
put_char():
D:\Files\Pango\FPGA_prjs\picorv32\Software\pico_test_1\Debug/../src/uart.c:33
    13a0:	0169a823          	sw	s6,16(s3)
    13a4:	87a2                	mv	a5,s0
    13a6:	0129a823          	sw	s2,16(s3)
    13aa:	8426                	mv	s0,s1
    13ac:	84be                	mv	s1,a5
printk():
D:\Files\Pango\FPGA_prjs\picorv32\Software\pico_test_1\Debug/../src/uart.c:143
    13ae:	00140783          	lb	a5,1(s0)
    13b2:	f3fd                	bnez	a5,1398 <printk+0x52>
D:\Files\Pango\FPGA_prjs\picorv32\Software\pico_test_1\Debug/../src/uart.c:201
    13b4:	50b2                	lw	ra,44(sp)
    13b6:	5422                	lw	s0,40(sp)
    13b8:	5492                	lw	s1,36(sp)
    13ba:	5902                	lw	s2,32(sp)
    13bc:	49f2                	lw	s3,28(sp)
    13be:	4a62                	lw	s4,24(sp)
    13c0:	4ad2                	lw	s5,20(sp)
    13c2:	4b42                	lw	s6,16(sp)
    13c4:	6161                	addi	sp,sp,80
    13c6:	8082                	ret
D:\Files\Pango\FPGA_prjs\picorv32\Software\pico_test_1\Debug/../src/uart.c:149
    13c8:	0014c783          	lbu	a5,1(s1)
    13cc:	05300713          	li	a4,83
    13d0:	fdb78793          	addi	a5,a5,-37
    13d4:	0ff7f793          	andi	a5,a5,255
    13d8:	00f76663          	bltu	a4,a5,13e4 <printk+0x9e>
    13dc:	078a                	slli	a5,a5,0x2
    13de:	97d6                	add	a5,a5,s5
    13e0:	439c                	lw	a5,0(a5)
    13e2:	8782                	jr	a5
put_char():
D:\Files\Pango\FPGA_prjs\picorv32\Software\pico_test_1\Debug/../src/uart.c:33
    13e4:	87a2                	mv	a5,s0
    13e6:	0149a823          	sw	s4,16(s3)
    13ea:	8426                	mv	s0,s1
    13ec:	84be                	mv	s1,a5
    13ee:	b755                	j	1392 <printk+0x4c>
printk():
D:\Files\Pango\FPGA_prjs\picorv32\Software\pico_test_1\Debug/../src/uart.c:152
    13f0:	47b2                	lw	a5,12(sp)
    13f2:	00078703          	lb	a4,0(a5)
    13f6:	0791                	addi	a5,a5,4
    13f8:	c63e                	sw	a5,12(sp)
put_char():
D:\Files\Pango\FPGA_prjs\picorv32\Software\pico_test_1\Debug/../src/uart.c:31
    13fa:	07270d63          	beq	a4,s2,1474 <printk+0x12e>
D:\Files\Pango\FPGA_prjs\picorv32\Software\pico_test_1\Debug/../src/uart.c:33
    13fe:	00e9a823          	sw	a4,16(s3)
    1402:	0489                	addi	s1,s1,2
printk():
D:\Files\Pango\FPGA_prjs\picorv32\Software\pico_test_1\Debug/../src/uart.c:154
    1404:	b779                	j	1392 <printk+0x4c>
D:\Files\Pango\FPGA_prjs\picorv32\Software\pico_test_1\Debug/../src/uart.c:175
    1406:	47b2                	lw	a5,12(sp)
    1408:	4388                	lw	a0,0(a5)
    140a:	0791                	addi	a5,a5,4
    140c:	c63e                	sw	a5,12(sp)
print_hex2():
D:\Files\Pango\FPGA_prjs\picorv32\Software\pico_test_1\Debug/../src/uart.c:78
    140e:	ed39                	bnez	a0,146c <printk+0x126>
put_char():
D:\Files\Pango\FPGA_prjs\picorv32\Software\pico_test_1\Debug/../src/uart.c:33
    1410:	03000793          	li	a5,48
    1414:	00f9a823          	sw	a5,16(s3)
    1418:	0489                	addi	s1,s1,2
printk():
D:\Files\Pango\FPGA_prjs\picorv32\Software\pico_test_1\Debug/../src/uart.c:177
    141a:	bfa5                	j	1392 <printk+0x4c>
D:\Files\Pango\FPGA_prjs\picorv32\Software\pico_test_1\Debug/../src/uart.c:158
    141c:	47b2                	lw	a5,12(sp)
    141e:	4388                	lw	a0,0(a5)
    1420:	0791                	addi	a5,a5,4
    1422:	c63e                	sw	a5,12(sp)
print_dec():
D:\Files\Pango\FPGA_prjs\picorv32\Software\pico_test_1\Debug/../src/uart.c:97
    1424:	d575                	beqz	a0,1410 <printk+0xca>
print_num():
    1426:	45a9                	li	a1,10
    1428:	335d                	jal	11ce <print_num.part.0>
    142a:	0489                	addi	s1,s1,2
    142c:	b79d                	j	1392 <printk+0x4c>
printk():
D:\Files\Pango\FPGA_prjs\picorv32\Software\pico_test_1\Debug/../src/uart.c:169
    142e:	47b2                	lw	a5,12(sp)
    1430:	4398                	lw	a4,0(a5)
    1432:	0791                	addi	a5,a5,4
    1434:	c63e                	sw	a5,12(sp)
print_str():
D:\Files\Pango\FPGA_prjs\picorv32\Software\pico_test_1\Debug/../src/uart.c:45
    1436:	00070783          	lb	a5,0(a4) # 8000 <_etext+0x568c>
    143a:	dff9                	beqz	a5,1418 <printk+0xd2>
D:\Files\Pango\FPGA_prjs\picorv32\Software\pico_test_1\Debug/../src/uart.c:46
    143c:	0705                	addi	a4,a4,1
put_char():
D:\Files\Pango\FPGA_prjs\picorv32\Software\pico_test_1\Debug/../src/uart.c:31
    143e:	01278a63          	beq	a5,s2,1452 <printk+0x10c>
D:\Files\Pango\FPGA_prjs\picorv32\Software\pico_test_1\Debug/../src/uart.c:33
    1442:	00f9a823          	sw	a5,16(s3)
print_str():
D:\Files\Pango\FPGA_prjs\picorv32\Software\pico_test_1\Debug/../src/uart.c:45
    1446:	00070783          	lb	a5,0(a4)
    144a:	d7f9                	beqz	a5,1418 <printk+0xd2>
D:\Files\Pango\FPGA_prjs\picorv32\Software\pico_test_1\Debug/../src/uart.c:46
    144c:	0705                	addi	a4,a4,1
put_char():
D:\Files\Pango\FPGA_prjs\picorv32\Software\pico_test_1\Debug/../src/uart.c:31
    144e:	ff279ae3          	bne	a5,s2,1442 <printk+0xfc>
D:\Files\Pango\FPGA_prjs\picorv32\Software\pico_test_1\Debug/../src/uart.c:33
    1452:	0169a823          	sw	s6,16(s3)
    1456:	b7f5                	j	1442 <printk+0xfc>
printk():
D:\Files\Pango\FPGA_prjs\picorv32\Software\pico_test_1\Debug/../src/uart.c:163
    1458:	47b2                	lw	a5,12(sp)
    145a:	0489                	addi	s1,s1,2
    145c:	079d                	addi	a5,a5,7
    145e:	9be1                	andi	a5,a5,-8
    1460:	4388                	lw	a0,0(a5)
    1462:	43cc                	lw	a1,4(a5)
    1464:	07a1                	addi	a5,a5,8
    1466:	c63e                	sw	a5,12(sp)
    1468:	359d                	jal	12ce <print_flt>
D:\Files\Pango\FPGA_prjs\picorv32\Software\pico_test_1\Debug/../src/uart.c:165
    146a:	b725                	j	1392 <printk+0x4c>
print_num():
    146c:	45c1                	li	a1,16
    146e:	3385                	jal	11ce <print_num.part.0>
    1470:	0489                	addi	s1,s1,2
    1472:	b705                	j	1392 <printk+0x4c>
put_char():
D:\Files\Pango\FPGA_prjs\picorv32\Software\pico_test_1\Debug/../src/uart.c:33
    1474:	0169a823          	sw	s6,16(s3)
    1478:	b759                	j	13fe <printk+0xb8>

0000147a <getchar_prompt>:
getchar_prompt():
D:\Files\Pango\FPGA_prjs\picorv32\Software\pico_test_1\Debug/../src/uart.c:215
    147a:	c00025f3          	rdcycle	a1
D:\Files\Pango\FPGA_prjs\picorv32\Software\pico_test_1\Debug/../src/uart.c:217
    147e:	c515                	beqz	a0,14aa <getchar_prompt+0x30>
print_str():
D:\Files\Pango\FPGA_prjs\picorv32\Software\pico_test_1\Debug/../src/uart.c:45
    1480:	00050783          	lb	a5,0(a0)
    1484:	c39d                	beqz	a5,14aa <getchar_prompt+0x30>
    1486:	872a                	mv	a4,a0
put_char():
D:\Files\Pango\FPGA_prjs\picorv32\Software\pico_test_1\Debug/../src/uart.c:31
    1488:	4629                	li	a2,10
D:\Files\Pango\FPGA_prjs\picorv32\Software\pico_test_1\Debug/../src/uart.c:33
    148a:	66a1                	lui	a3,0x8
    148c:	4835                	li	a6,13
    148e:	a029                	j	1498 <getchar_prompt+0x1e>
    1490:	ca9c                	sw	a5,16(a3)
print_str():
D:\Files\Pango\FPGA_prjs\picorv32\Software\pico_test_1\Debug/../src/uart.c:45
    1492:	00070783          	lb	a5,0(a4)
    1496:	cb91                	beqz	a5,14aa <getchar_prompt+0x30>
D:\Files\Pango\FPGA_prjs\picorv32\Software\pico_test_1\Debug/../src/uart.c:46
    1498:	0705                	addi	a4,a4,1
put_char():
D:\Files\Pango\FPGA_prjs\picorv32\Software\pico_test_1\Debug/../src/uart.c:31
    149a:	fec79be3          	bne	a5,a2,1490 <getchar_prompt+0x16>
D:\Files\Pango\FPGA_prjs\picorv32\Software\pico_test_1\Debug/../src/uart.c:33
    149e:	0106a823          	sw	a6,16(a3) # 8010 <_etext+0x569c>
    14a2:	ca9c                	sw	a5,16(a3)
print_str():
D:\Files\Pango\FPGA_prjs\picorv32\Software\pico_test_1\Debug/../src/uart.c:45
    14a4:	00070783          	lb	a5,0(a4)
    14a8:	fbe5                	bnez	a5,1498 <getchar_prompt+0x1e>
getchar_prompt():
D:\Files\Pango\FPGA_prjs\picorv32\Software\pico_test_1\Debug/../src/uart.c:224
    14aa:	00b728b7          	lui	a7,0xb72
    14ae:	b0088893          	addi	a7,a7,-1280 # b71b00 <_etext+0xb6f18c>
put_char():
D:\Files\Pango\FPGA_prjs\picorv32\Software\pico_test_1\Debug/../src/uart.c:31
    14b2:	4829                	li	a6,10
D:\Files\Pango\FPGA_prjs\picorv32\Software\pico_test_1\Debug/../src/uart.c:33
    14b4:	66a1                	lui	a3,0x8
    14b6:	4e35                	li	t3,13
getchar_prompt():
D:\Files\Pango\FPGA_prjs\picorv32\Software\pico_test_1\Debug/../src/uart.c:220
    14b8:	537d                	li	t1,-1
D:\Files\Pango\FPGA_prjs\picorv32\Software\pico_test_1\Debug/../src/uart.c:222
    14ba:	c0002673          	rdcycle	a2
D:\Files\Pango\FPGA_prjs\picorv32\Software\pico_test_1\Debug/../src/uart.c:223
    14be:	40b607b3          	sub	a5,a2,a1
D:\Files\Pango\FPGA_prjs\picorv32\Software\pico_test_1\Debug/../src/uart.c:224
    14c2:	02f8f763          	bleu	a5,a7,14f0 <getchar_prompt+0x76>
D:\Files\Pango\FPGA_prjs\picorv32\Software\pico_test_1\Debug/../src/uart.c:230
    14c6:	85b2                	mv	a1,a2
D:\Files\Pango\FPGA_prjs\picorv32\Software\pico_test_1\Debug/../src/uart.c:226
    14c8:	c505                	beqz	a0,14f0 <getchar_prompt+0x76>
print_str():
D:\Files\Pango\FPGA_prjs\picorv32\Software\pico_test_1\Debug/../src/uart.c:45
    14ca:	00050783          	lb	a5,0(a0)
    14ce:	c38d                	beqz	a5,14f0 <getchar_prompt+0x76>
    14d0:	872a                	mv	a4,a0
    14d2:	a029                	j	14dc <getchar_prompt+0x62>
put_char():
D:\Files\Pango\FPGA_prjs\picorv32\Software\pico_test_1\Debug/../src/uart.c:33
    14d4:	ca9c                	sw	a5,16(a3)
print_str():
D:\Files\Pango\FPGA_prjs\picorv32\Software\pico_test_1\Debug/../src/uart.c:45
    14d6:	00070783          	lb	a5,0(a4)
    14da:	cb91                	beqz	a5,14ee <getchar_prompt+0x74>
D:\Files\Pango\FPGA_prjs\picorv32\Software\pico_test_1\Debug/../src/uart.c:46
    14dc:	0705                	addi	a4,a4,1
put_char():
D:\Files\Pango\FPGA_prjs\picorv32\Software\pico_test_1\Debug/../src/uart.c:31
    14de:	ff079be3          	bne	a5,a6,14d4 <getchar_prompt+0x5a>
D:\Files\Pango\FPGA_prjs\picorv32\Software\pico_test_1\Debug/../src/uart.c:33
    14e2:	01c6a823          	sw	t3,16(a3) # 8010 <_etext+0x569c>
    14e6:	ca9c                	sw	a5,16(a3)
print_str():
D:\Files\Pango\FPGA_prjs\picorv32\Software\pico_test_1\Debug/../src/uart.c:45
    14e8:	00070783          	lb	a5,0(a4)
    14ec:	fbe5                	bnez	a5,14dc <getchar_prompt+0x62>
getchar_prompt():
D:\Files\Pango\FPGA_prjs\picorv32\Software\pico_test_1\Debug/../src/uart.c:230
    14ee:	85b2                	mv	a1,a2
D:\Files\Pango\FPGA_prjs\picorv32\Software\pico_test_1\Debug/../src/uart.c:232
    14f0:	4a9c                	lw	a5,16(a3)
D:\Files\Pango\FPGA_prjs\picorv32\Software\pico_test_1\Debug/../src/uart.c:220
    14f2:	fc6784e3          	beq	a5,t1,14ba <getchar_prompt+0x40>
D:\Files\Pango\FPGA_prjs\picorv32\Software\pico_test_1\Debug/../src/uart.c:236
    14f6:	01879513          	slli	a0,a5,0x18
    14fa:	8561                	srai	a0,a0,0x18
    14fc:	8082                	ret

000014fe <get_char>:
get_char():
D:\Files\Pango\FPGA_prjs\picorv32\Software\pico_test_1\Debug/../src/uart.c:246
    14fe:	1141                	addi	sp,sp,-16
D:\Files\Pango\FPGA_prjs\picorv32\Software\pico_test_1\Debug/../src/uart.c:248
    1500:	4501                	li	a0,0
D:\Files\Pango\FPGA_prjs\picorv32\Software\pico_test_1\Debug/../src/uart.c:246
    1502:	c606                	sw	ra,12(sp)
D:\Files\Pango\FPGA_prjs\picorv32\Software\pico_test_1\Debug/../src/uart.c:248
    1504:	3f9d                	jal	147a <getchar_prompt>
put_char():
D:\Files\Pango\FPGA_prjs\picorv32\Software\pico_test_1\Debug/../src/uart.c:31
    1506:	4729                	li	a4,10
get_char():
D:\Files\Pango\FPGA_prjs\picorv32\Software\pico_test_1\Debug/../src/uart.c:248
    1508:	87aa                	mv	a5,a0
put_char():
D:\Files\Pango\FPGA_prjs\picorv32\Software\pico_test_1\Debug/../src/uart.c:31
    150a:	00e50763          	beq	a0,a4,1518 <get_char+0x1a>
get_char():
D:\Files\Pango\FPGA_prjs\picorv32\Software\pico_test_1\Debug/../src/uart.c:249
    150e:	40b2                	lw	ra,12(sp)
put_char():
D:\Files\Pango\FPGA_prjs\picorv32\Software\pico_test_1\Debug/../src/uart.c:33
    1510:	6721                	lui	a4,0x8
    1512:	cb1c                	sw	a5,16(a4)
get_char():
D:\Files\Pango\FPGA_prjs\picorv32\Software\pico_test_1\Debug/../src/uart.c:249
    1514:	0141                	addi	sp,sp,16
    1516:	8082                	ret
put_char():
D:\Files\Pango\FPGA_prjs\picorv32\Software\pico_test_1\Debug/../src/uart.c:33
    1518:	6721                	lui	a4,0x8
get_char():
D:\Files\Pango\FPGA_prjs\picorv32\Software\pico_test_1\Debug/../src/uart.c:249
    151a:	40b2                	lw	ra,12(sp)
put_char():
D:\Files\Pango\FPGA_prjs\picorv32\Software\pico_test_1\Debug/../src/uart.c:33
    151c:	46b5                	li	a3,13
    151e:	cb14                	sw	a3,16(a4)
    1520:	6721                	lui	a4,0x8
    1522:	cb1c                	sw	a5,16(a4)
get_char():
D:\Files\Pango\FPGA_prjs\picorv32\Software\pico_test_1\Debug/../src/uart.c:249
    1524:	0141                	addi	sp,sp,16
    1526:	8082                	ret

00001528 <__muldf3>:
__muldf3():
    1528:	fc010113          	addi	sp,sp,-64
    152c:	02812c23          	sw	s0,56(sp)
    1530:	0145d793          	srli	a5,a1,0x14
    1534:	00100437          	lui	s0,0x100
    1538:	02912a23          	sw	s1,52(sp)
    153c:	03312623          	sw	s3,44(sp)
    1540:	00050493          	mv	s1,a0
    1544:	fff40413          	addi	s0,s0,-1 # fffff <_etext+0xfd68b>
    1548:	02112e23          	sw	ra,60(sp)
    154c:	03212823          	sw	s2,48(sp)
    1550:	03412423          	sw	s4,40(sp)
    1554:	03512223          	sw	s5,36(sp)
    1558:	03612023          	sw	s6,32(sp)
    155c:	01712e23          	sw	s7,28(sp)
    1560:	7ff7f513          	andi	a0,a5,2047
    1564:	00b47433          	and	s0,s0,a1
    1568:	01f5d993          	srli	s3,a1,0x1f
    156c:	1e050e63          	beqz	a0,1768 <__muldf3+0x240>
    1570:	7ff00793          	li	a5,2047
    1574:	0af50063          	beq	a0,a5,1614 <__muldf3+0xec>
    1578:	00341413          	slli	s0,s0,0x3
    157c:	008007b7          	lui	a5,0x800
    1580:	01d4db13          	srli	s6,s1,0x1d
    1584:	00f46433          	or	s0,s0,a5
    1588:	00349a13          	slli	s4,s1,0x3
    158c:	008b6b33          	or	s6,s6,s0
    1590:	c0150a93          	addi	s5,a0,-1023
    1594:	00000493          	li	s1,0
    1598:	00000b93          	li	s7,0
    159c:	0146d893          	srli	a7,a3,0x14
    15a0:	00100437          	lui	s0,0x100
    15a4:	fff40413          	addi	s0,s0,-1 # fffff <_etext+0xfd68b>
    15a8:	7ff8f893          	andi	a7,a7,2047
    15ac:	00060813          	mv	a6,a2
    15b0:	00d47433          	and	s0,s0,a3
    15b4:	01f6d913          	srli	s2,a3,0x1f
    15b8:	08088a63          	beqz	a7,164c <__muldf3+0x124>
    15bc:	7ff00793          	li	a5,2047
    15c0:	20f88463          	beq	a7,a5,17c8 <__muldf3+0x2a0>
    15c4:	00800737          	lui	a4,0x800
    15c8:	00341413          	slli	s0,s0,0x3
    15cc:	00e46433          	or	s0,s0,a4
    15d0:	c0188893          	addi	a7,a7,-1023
    15d4:	01d65713          	srli	a4,a2,0x1d
    15d8:	00876733          	or	a4,a4,s0
    15dc:	00361813          	slli	a6,a2,0x3
    15e0:	011a8ab3          	add	s5,s5,a7
    15e4:	00000513          	li	a0,0
    15e8:	00f00693          	li	a3,15
    15ec:	0129c7b3          	xor	a5,s3,s2
    15f0:	001a8593          	addi	a1,s5,1
    15f4:	1e96e863          	bltu	a3,s1,17e4 <__muldf3+0x2bc>
    15f8:	00001617          	auipc	a2,0x1
    15fc:	23c60613          	addi	a2,a2,572 # 2834 <__clzsi2+0x2bc>
    1600:	00249493          	slli	s1,s1,0x2
    1604:	00c484b3          	add	s1,s1,a2
    1608:	0004a683          	lw	a3,0(s1)
    160c:	00c686b3          	add	a3,a3,a2
    1610:	00068067          	jr	a3
    1614:	00946b33          	or	s6,s0,s1
    1618:	400b1663          	bnez	s6,1a24 <__muldf3+0x4fc>
    161c:	0146d893          	srli	a7,a3,0x14
    1620:	00100437          	lui	s0,0x100
    1624:	fff40413          	addi	s0,s0,-1 # fffff <_etext+0xfd68b>
    1628:	7ff8f893          	andi	a7,a7,2047
    162c:	00800493          	li	s1,8
    1630:	00000a13          	li	s4,0
    1634:	7ff00a93          	li	s5,2047
    1638:	00200b93          	li	s7,2
    163c:	00060813          	mv	a6,a2
    1640:	00d47433          	and	s0,s0,a3
    1644:	01f6d913          	srli	s2,a3,0x1f
    1648:	f6089ae3          	bnez	a7,15bc <__muldf3+0x94>
    164c:	00c46733          	or	a4,s0,a2
    1650:	3e070663          	beqz	a4,1a3c <__muldf3+0x514>
    1654:	4a040463          	beqz	s0,1afc <__muldf3+0x5d4>
    1658:	00040513          	mv	a0,s0
    165c:	00c12423          	sw	a2,8(sp)
    1660:	719000ef          	jal	ra,2578 <__clzsi2>
    1664:	00812603          	lw	a2,8(sp)
    1668:	ff550793          	addi	a5,a0,-11
    166c:	01c00713          	li	a4,28
    1670:	44f74a63          	blt	a4,a5,1ac4 <__muldf3+0x59c>
    1674:	01d00713          	li	a4,29
    1678:	ff850813          	addi	a6,a0,-8
    167c:	40f70733          	sub	a4,a4,a5
    1680:	01041433          	sll	s0,s0,a6
    1684:	00e65733          	srl	a4,a2,a4
    1688:	00876733          	or	a4,a4,s0
    168c:	01061833          	sll	a6,a2,a6
    1690:	40aa8533          	sub	a0,s5,a0
    1694:	c0d50a93          	addi	s5,a0,-1011
    1698:	00000513          	li	a0,0
    169c:	f4dff06f          	j	15e8 <__muldf3+0xc0>
    16a0:	00000613          	li	a2,0
    16a4:	7ff00713          	li	a4,2047
    16a8:	000807b7          	lui	a5,0x80
    16ac:	00000813          	li	a6,0
    16b0:	001006b7          	lui	a3,0x100
    16b4:	fff68693          	addi	a3,a3,-1 # fffff <_etext+0xfd68b>
    16b8:	00d7f7b3          	and	a5,a5,a3
    16bc:	801006b7          	lui	a3,0x80100
    16c0:	fff68693          	addi	a3,a3,-1 # 800fffff <_etext+0x800fd68b>
    16c4:	00d7f7b3          	and	a5,a5,a3
    16c8:	03c12083          	lw	ra,60(sp)
    16cc:	03812403          	lw	s0,56(sp)
    16d0:	01471713          	slli	a4,a4,0x14
    16d4:	01f61693          	slli	a3,a2,0x1f
    16d8:	00e7e7b3          	or	a5,a5,a4
    16dc:	00d7e7b3          	or	a5,a5,a3
    16e0:	03412483          	lw	s1,52(sp)
    16e4:	03012903          	lw	s2,48(sp)
    16e8:	02c12983          	lw	s3,44(sp)
    16ec:	02812a03          	lw	s4,40(sp)
    16f0:	02412a83          	lw	s5,36(sp)
    16f4:	02012b03          	lw	s6,32(sp)
    16f8:	01c12b83          	lw	s7,28(sp)
    16fc:	00080513          	mv	a0,a6
    1700:	00078593          	mv	a1,a5
    1704:	04010113          	addi	sp,sp,64
    1708:	00008067          	ret
    170c:	00090793          	mv	a5,s2
    1710:	00200693          	li	a3,2
    1714:	02d51863          	bne	a0,a3,1744 <__muldf3+0x21c>
    1718:	00078613          	mv	a2,a5
    171c:	7ff00713          	li	a4,2047
    1720:	00000793          	li	a5,0
    1724:	00000813          	li	a6,0
    1728:	f89ff06f          	j	16b0 <__muldf3+0x188>
    172c:	00098793          	mv	a5,s3
    1730:	000b8513          	mv	a0,s7
    1734:	00200693          	li	a3,2
    1738:	000b0713          	mv	a4,s6
    173c:	000a0813          	mv	a6,s4
    1740:	fcd50ce3          	beq	a0,a3,1718 <__muldf3+0x1f0>
    1744:	00300693          	li	a3,3
    1748:	f4d50ce3          	beq	a0,a3,16a0 <__muldf3+0x178>
    174c:	00100693          	li	a3,1
    1750:	24d51a63          	bne	a0,a3,19a4 <__muldf3+0x47c>
    1754:	00078613          	mv	a2,a5
    1758:	00000713          	li	a4,0
    175c:	00000793          	li	a5,0
    1760:	00000813          	li	a6,0
    1764:	f4dff06f          	j	16b0 <__muldf3+0x188>
    1768:	00946b33          	or	s6,s0,s1
    176c:	2a0b0263          	beqz	s6,1a10 <__muldf3+0x4e8>
    1770:	00d12623          	sw	a3,12(sp)
    1774:	00c12423          	sw	a2,8(sp)
    1778:	36040663          	beqz	s0,1ae4 <__muldf3+0x5bc>
    177c:	00040513          	mv	a0,s0
    1780:	5f9000ef          	jal	ra,2578 <__clzsi2>
    1784:	00812603          	lw	a2,8(sp)
    1788:	00c12683          	lw	a3,12(sp)
    178c:	ff550793          	addi	a5,a0,-11
    1790:	01c00713          	li	a4,28
    1794:	34f74063          	blt	a4,a5,1ad4 <__muldf3+0x5ac>
    1798:	01d00b13          	li	s6,29
    179c:	ff850a13          	addi	s4,a0,-8
    17a0:	40fb0b33          	sub	s6,s6,a5
    17a4:	01441433          	sll	s0,s0,s4
    17a8:	0164db33          	srl	s6,s1,s6
    17ac:	008b6b33          	or	s6,s6,s0
    17b0:	01449a33          	sll	s4,s1,s4
    17b4:	c0d00a93          	li	s5,-1011
    17b8:	40aa8ab3          	sub	s5,s5,a0
    17bc:	00000493          	li	s1,0
    17c0:	00000b93          	li	s7,0
    17c4:	dd9ff06f          	j	159c <__muldf3+0x74>
    17c8:	00c46733          	or	a4,s0,a2
    17cc:	7ffa8a93          	addi	s5,s5,2047
    17d0:	26071e63          	bnez	a4,1a4c <__muldf3+0x524>
    17d4:	0024e493          	ori	s1,s1,2
    17d8:	00000813          	li	a6,0
    17dc:	00200513          	li	a0,2
    17e0:	e09ff06f          	j	15e8 <__muldf3+0xc0>
    17e4:	00010eb7          	lui	t4,0x10
    17e8:	fffe8613          	addi	a2,t4,-1 # ffff <_etext+0xd68b>
    17ec:	010a5693          	srli	a3,s4,0x10
    17f0:	01085313          	srli	t1,a6,0x10
    17f4:	00ca7a33          	and	s4,s4,a2
    17f8:	00c87833          	and	a6,a6,a2
    17fc:	03480633          	mul	a2,a6,s4
    1800:	03068e33          	mul	t3,a3,a6
    1804:	01065513          	srli	a0,a2,0x10
    1808:	034308b3          	mul	a7,t1,s4
    180c:	01c888b3          	add	a7,a7,t3
    1810:	01150533          	add	a0,a0,a7
    1814:	02668f33          	mul	t5,a3,t1
    1818:	01c57463          	bleu	t3,a0,1820 <__muldf3+0x2f8>
    181c:	01df0f33          	add	t5,t5,t4
    1820:	00010e37          	lui	t3,0x10
    1824:	fffe0893          	addi	a7,t3,-1 # ffff <_etext+0xd68b>
    1828:	011773b3          	and	t2,a4,a7
    182c:	01075293          	srli	t0,a4,0x10
    1830:	01157733          	and	a4,a0,a7
    1834:	011678b3          	and	a7,a2,a7
    1838:	01071713          	slli	a4,a4,0x10
    183c:	03438633          	mul	a2,t2,s4
    1840:	011708b3          	add	a7,a4,a7
    1844:	01055513          	srli	a0,a0,0x10
    1848:	02768eb3          	mul	t4,a3,t2
    184c:	01065713          	srli	a4,a2,0x10
    1850:	03428a33          	mul	s4,t0,s4
    1854:	01da0a33          	add	s4,s4,t4
    1858:	01470a33          	add	s4,a4,s4
    185c:	025686b3          	mul	a3,a3,t0
    1860:	01da7463          	bleu	t4,s4,1868 <__muldf3+0x340>
    1864:	01c686b3          	add	a3,a3,t3
    1868:	00010937          	lui	s2,0x10
    186c:	fff90713          	addi	a4,s2,-1 # ffff <_etext+0xd68b>
    1870:	010b5f93          	srli	t6,s6,0x10
    1874:	00eb7433          	and	s0,s6,a4
    1878:	00ea7eb3          	and	t4,s4,a4
    187c:	00e67633          	and	a2,a2,a4
    1880:	010e9e93          	slli	t4,t4,0x10
    1884:	028804b3          	mul	s1,a6,s0
    1888:	010a5a13          	srli	s4,s4,0x10
    188c:	00ce8eb3          	add	t4,t4,a2
    1890:	00da0a33          	add	s4,s4,a3
    1894:	01d50533          	add	a0,a0,t4
    1898:	02830733          	mul	a4,t1,s0
    189c:	0104de13          	srli	t3,s1,0x10
    18a0:	030f8833          	mul	a6,t6,a6
    18a4:	01070733          	add	a4,a4,a6
    18a8:	00ee0e33          	add	t3,t3,a4
    18ac:	03f30333          	mul	t1,t1,t6
    18b0:	010e7463          	bleu	a6,t3,18b8 <__muldf3+0x390>
    18b4:	01230333          	add	t1,t1,s2
    18b8:	00010937          	lui	s2,0x10
    18bc:	fff90613          	addi	a2,s2,-1 # ffff <_etext+0xd68b>
    18c0:	00ce76b3          	and	a3,t3,a2
    18c4:	010e5e13          	srli	t3,t3,0x10
    18c8:	006e0333          	add	t1,t3,t1
    18cc:	01069693          	slli	a3,a3,0x10
    18d0:	00c4f4b3          	and	s1,s1,a2
    18d4:	02838e33          	mul	t3,t2,s0
    18d8:	00968633          	add	a2,a3,s1
    18dc:	027f8833          	mul	a6,t6,t2
    18e0:	010e5713          	srli	a4,t3,0x10
    18e4:	02828433          	mul	s0,t0,s0
    18e8:	01040433          	add	s0,s0,a6
    18ec:	00870433          	add	s0,a4,s0
    18f0:	03f28fb3          	mul	t6,t0,t6
    18f4:	01047463          	bleu	a6,s0,18fc <__muldf3+0x3d4>
    18f8:	012f8fb3          	add	t6,t6,s2
    18fc:	00010737          	lui	a4,0x10
    1900:	fff70713          	addi	a4,a4,-1 # ffff <_etext+0xd68b>
    1904:	00e476b3          	and	a3,s0,a4
    1908:	01069693          	slli	a3,a3,0x10
    190c:	00ee7733          	and	a4,t3,a4
    1910:	01e50533          	add	a0,a0,t5
    1914:	00e686b3          	add	a3,a3,a4
    1918:	01d53eb3          	sltu	t4,a0,t4
    191c:	01468733          	add	a4,a3,s4
    1920:	00c50533          	add	a0,a0,a2
    1924:	01d70833          	add	a6,a4,t4
    1928:	00c536b3          	sltu	a3,a0,a2
    192c:	00680e33          	add	t3,a6,t1
    1930:	00de0633          	add	a2,t3,a3
    1934:	01d83eb3          	sltu	t4,a6,t4
    1938:	01473733          	sltu	a4,a4,s4
    193c:	01d76733          	or	a4,a4,t4
    1940:	01045413          	srli	s0,s0,0x10
    1944:	006e3333          	sltu	t1,t3,t1
    1948:	00d636b3          	sltu	a3,a2,a3
    194c:	00d366b3          	or	a3,t1,a3
    1950:	00870733          	add	a4,a4,s0
    1954:	00d70733          	add	a4,a4,a3
    1958:	00951813          	slli	a6,a0,0x9
    195c:	01186833          	or	a6,a6,a7
    1960:	01f70733          	add	a4,a4,t6
    1964:	00971713          	slli	a4,a4,0x9
    1968:	01765893          	srli	a7,a2,0x17
    196c:	01003833          	snez	a6,a6
    1970:	01755513          	srli	a0,a0,0x17
    1974:	00961693          	slli	a3,a2,0x9
    1978:	00a86833          	or	a6,a6,a0
    197c:	01176733          	or	a4,a4,a7
    1980:	00d86833          	or	a6,a6,a3
    1984:	00771693          	slli	a3,a4,0x7
    1988:	1806d663          	bgez	a3,1b14 <__muldf3+0x5ec>
    198c:	00185693          	srli	a3,a6,0x1
    1990:	00187813          	andi	a6,a6,1
    1994:	01f71613          	slli	a2,a4,0x1f
    1998:	0106e833          	or	a6,a3,a6
    199c:	00c86833          	or	a6,a6,a2
    19a0:	00175713          	srli	a4,a4,0x1
    19a4:	3ff58693          	addi	a3,a1,1023
    19a8:	00078613          	mv	a2,a5
    19ac:	0ad05863          	blez	a3,1a5c <__muldf3+0x534>
    19b0:	00787793          	andi	a5,a6,7
    19b4:	02078063          	beqz	a5,19d4 <__muldf3+0x4ac>
    19b8:	00f87793          	andi	a5,a6,15
    19bc:	00400513          	li	a0,4
    19c0:	00a78a63          	beq	a5,a0,19d4 <__muldf3+0x4ac>
    19c4:	00480793          	addi	a5,a6,4
    19c8:	0107b833          	sltu	a6,a5,a6
    19cc:	01070733          	add	a4,a4,a6
    19d0:	00078813          	mv	a6,a5
    19d4:	00771793          	slli	a5,a4,0x7
    19d8:	0007da63          	bgez	a5,19ec <__muldf3+0x4c4>
    19dc:	ff0007b7          	lui	a5,0xff000
    19e0:	fff78793          	addi	a5,a5,-1 # feffffff <_etext+0xfeffd68b>
    19e4:	00f77733          	and	a4,a4,a5
    19e8:	40058693          	addi	a3,a1,1024
    19ec:	7fe00793          	li	a5,2046
    19f0:	12d7c663          	blt	a5,a3,1b1c <__muldf3+0x5f4>
    19f4:	00385793          	srli	a5,a6,0x3
    19f8:	01d71813          	slli	a6,a4,0x1d
    19fc:	00971713          	slli	a4,a4,0x9
    1a00:	00f86833          	or	a6,a6,a5
    1a04:	00c75793          	srli	a5,a4,0xc
    1a08:	7ff6f713          	andi	a4,a3,2047
    1a0c:	ca5ff06f          	j	16b0 <__muldf3+0x188>
    1a10:	00400493          	li	s1,4
    1a14:	00000a13          	li	s4,0
    1a18:	00000a93          	li	s5,0
    1a1c:	00100b93          	li	s7,1
    1a20:	b7dff06f          	j	159c <__muldf3+0x74>
    1a24:	00048a13          	mv	s4,s1
    1a28:	00040b13          	mv	s6,s0
    1a2c:	00c00493          	li	s1,12
    1a30:	7ff00a93          	li	s5,2047
    1a34:	00300b93          	li	s7,3
    1a38:	b65ff06f          	j	159c <__muldf3+0x74>
    1a3c:	0014e493          	ori	s1,s1,1
    1a40:	00000813          	li	a6,0
    1a44:	00100513          	li	a0,1
    1a48:	ba1ff06f          	j	15e8 <__muldf3+0xc0>
    1a4c:	0034e493          	ori	s1,s1,3
    1a50:	00040713          	mv	a4,s0
    1a54:	00300513          	li	a0,3
    1a58:	b91ff06f          	j	15e8 <__muldf3+0xc0>
    1a5c:	00100793          	li	a5,1
    1a60:	40d787b3          	sub	a5,a5,a3
    1a64:	0c069463          	bnez	a3,1b2c <__muldf3+0x604>
    1a68:	41e58593          	addi	a1,a1,1054
    1a6c:	00b816b3          	sll	a3,a6,a1
    1a70:	00b715b3          	sll	a1,a4,a1
    1a74:	00f85833          	srl	a6,a6,a5
    1a78:	00d036b3          	snez	a3,a3
    1a7c:	0105e5b3          	or	a1,a1,a6
    1a80:	00d5e5b3          	or	a1,a1,a3
    1a84:	0075f693          	andi	a3,a1,7
    1a88:	00f75733          	srl	a4,a4,a5
    1a8c:	02068063          	beqz	a3,1aac <__muldf3+0x584>
    1a90:	00f5f793          	andi	a5,a1,15
    1a94:	00400693          	li	a3,4
    1a98:	00d78a63          	beq	a5,a3,1aac <__muldf3+0x584>
    1a9c:	00058813          	mv	a6,a1
    1aa0:	00480593          	addi	a1,a6,4
    1aa4:	0105b833          	sltu	a6,a1,a6
    1aa8:	01070733          	add	a4,a4,a6
    1aac:	00871793          	slli	a5,a4,0x8
    1ab0:	0e07d263          	bgez	a5,1b94 <__muldf3+0x66c>
    1ab4:	00100713          	li	a4,1
    1ab8:	00000793          	li	a5,0
    1abc:	00000813          	li	a6,0
    1ac0:	bf1ff06f          	j	16b0 <__muldf3+0x188>
    1ac4:	fd850713          	addi	a4,a0,-40
    1ac8:	00e61733          	sll	a4,a2,a4
    1acc:	00000813          	li	a6,0
    1ad0:	bc1ff06f          	j	1690 <__muldf3+0x168>
    1ad4:	fd850413          	addi	s0,a0,-40
    1ad8:	00849b33          	sll	s6,s1,s0
    1adc:	00000a13          	li	s4,0
    1ae0:	cd5ff06f          	j	17b4 <__muldf3+0x28c>
    1ae4:	00048513          	mv	a0,s1
    1ae8:	291000ef          	jal	ra,2578 <__clzsi2>
    1aec:	02050513          	addi	a0,a0,32
    1af0:	00c12683          	lw	a3,12(sp)
    1af4:	00812603          	lw	a2,8(sp)
    1af8:	c95ff06f          	j	178c <__muldf3+0x264>
    1afc:	00060513          	mv	a0,a2
    1b00:	00c12423          	sw	a2,8(sp)
    1b04:	275000ef          	jal	ra,2578 <__clzsi2>
    1b08:	02050513          	addi	a0,a0,32
    1b0c:	00812603          	lw	a2,8(sp)
    1b10:	b59ff06f          	j	1668 <__muldf3+0x140>
    1b14:	000a8593          	mv	a1,s5
    1b18:	e8dff06f          	j	19a4 <__muldf3+0x47c>
    1b1c:	7ff00713          	li	a4,2047
    1b20:	00000793          	li	a5,0
    1b24:	00000813          	li	a6,0
    1b28:	b89ff06f          	j	16b0 <__muldf3+0x188>
    1b2c:	03800513          	li	a0,56
    1b30:	00f55a63          	ble	a5,a0,1b44 <__muldf3+0x61c>
    1b34:	00000713          	li	a4,0
    1b38:	00000793          	li	a5,0
    1b3c:	00000813          	li	a6,0
    1b40:	b71ff06f          	j	16b0 <__muldf3+0x188>
    1b44:	01f00513          	li	a0,31
    1b48:	f2f550e3          	ble	a5,a0,1a68 <__muldf3+0x540>
    1b4c:	fe100513          	li	a0,-31
    1b50:	40d506b3          	sub	a3,a0,a3
    1b54:	02000513          	li	a0,32
    1b58:	00d756b3          	srl	a3,a4,a3
    1b5c:	00a78863          	beq	a5,a0,1b6c <__muldf3+0x644>
    1b60:	43e58593          	addi	a1,a1,1086
    1b64:	00b71733          	sll	a4,a4,a1
    1b68:	00e86833          	or	a6,a6,a4
    1b6c:	01003833          	snez	a6,a6
    1b70:	00d86833          	or	a6,a6,a3
    1b74:	00787713          	andi	a4,a6,7
    1b78:	00000793          	li	a5,0
    1b7c:	02070463          	beqz	a4,1ba4 <__muldf3+0x67c>
    1b80:	00f87793          	andi	a5,a6,15
    1b84:	00400693          	li	a3,4
    1b88:	00000713          	li	a4,0
    1b8c:	00080593          	mv	a1,a6
    1b90:	f0d798e3          	bne	a5,a3,1aa0 <__muldf3+0x578>
    1b94:	00971693          	slli	a3,a4,0x9
    1b98:	00c6d793          	srli	a5,a3,0xc
    1b9c:	01d71713          	slli	a4,a4,0x1d
    1ba0:	00058813          	mv	a6,a1
    1ba4:	00385813          	srli	a6,a6,0x3
    1ba8:	00e86833          	or	a6,a6,a4
    1bac:	00000713          	li	a4,0
    1bb0:	b01ff06f          	j	16b0 <__muldf3+0x188>

00001bb4 <__subdf3>:
__subdf3():
    1bb4:	00100837          	lui	a6,0x100
    1bb8:	fff80813          	addi	a6,a6,-1 # fffff <_etext+0xfd68b>
    1bbc:	fe010113          	addi	sp,sp,-32
    1bc0:	00b877b3          	and	a5,a6,a1
    1bc4:	0146d893          	srli	a7,a3,0x14
    1bc8:	00d87833          	and	a6,a6,a3
    1bcc:	00379313          	slli	t1,a5,0x3
    1bd0:	00812c23          	sw	s0,24(sp)
    1bd4:	01d55793          	srli	a5,a0,0x1d
    1bd8:	00912a23          	sw	s1,20(sp)
    1bdc:	01212823          	sw	s2,16(sp)
    1be0:	0145d493          	srli	s1,a1,0x14
    1be4:	01d65913          	srli	s2,a2,0x1d
    1be8:	00381813          	slli	a6,a6,0x3
    1bec:	00112e23          	sw	ra,28(sp)
    1bf0:	01312623          	sw	s3,12(sp)
    1bf4:	7ff8f893          	andi	a7,a7,2047
    1bf8:	7ff00713          	li	a4,2047
    1bfc:	01f5d413          	srli	s0,a1,0x1f
    1c00:	7ff4f493          	andi	s1,s1,2047
    1c04:	0067e7b3          	or	a5,a5,t1
    1c08:	00351513          	slli	a0,a0,0x3
    1c0c:	01f6d693          	srli	a3,a3,0x1f
    1c10:	010965b3          	or	a1,s2,a6
    1c14:	00361613          	slli	a2,a2,0x3
    1c18:	0ae88663          	beq	a7,a4,1cc4 <__subdf3+0x110>
    1c1c:	0016c693          	xori	a3,a3,1
    1c20:	41148833          	sub	a6,s1,a7
    1c24:	0a868863          	beq	a3,s0,1cd4 <__subdf3+0x120>
    1c28:	0f005463          	blez	a6,1d10 <__subdf3+0x15c>
    1c2c:	12089463          	bnez	a7,1d54 <__subdf3+0x1a0>
    1c30:	00c5e733          	or	a4,a1,a2
    1c34:	24071c63          	bnez	a4,1e8c <__subdf3+0x2d8>
    1c38:	7ff00713          	li	a4,2047
    1c3c:	38e80e63          	beq	a6,a4,1fd8 <__subdf3+0x424>
    1c40:	01d79693          	slli	a3,a5,0x1d
    1c44:	00355513          	srli	a0,a0,0x3
    1c48:	00d569b3          	or	s3,a0,a3
    1c4c:	0037d793          	srli	a5,a5,0x3
    1c50:	7ff00713          	li	a4,2047
    1c54:	56e80063          	beq	a6,a4,21b4 <__subdf3+0x600>
    1c58:	00100737          	lui	a4,0x100
    1c5c:	fff70713          	addi	a4,a4,-1 # fffff <_etext+0xfd68b>
    1c60:	00e7f7b3          	and	a5,a5,a4
    1c64:	7ff87813          	andi	a6,a6,2047
    1c68:	00147593          	andi	a1,s0,1
    1c6c:	00100737          	lui	a4,0x100
    1c70:	fff70713          	addi	a4,a4,-1 # fffff <_etext+0xfd68b>
    1c74:	00e7f7b3          	and	a5,a5,a4
    1c78:	80100737          	lui	a4,0x80100
    1c7c:	fff70713          	addi	a4,a4,-1 # 800fffff <_etext+0x800fd68b>
    1c80:	00e7f7b3          	and	a5,a5,a4
    1c84:	01481813          	slli	a6,a6,0x14
    1c88:	80000737          	lui	a4,0x80000
    1c8c:	01c12083          	lw	ra,28(sp)
    1c90:	01812403          	lw	s0,24(sp)
    1c94:	0107e7b3          	or	a5,a5,a6
    1c98:	fff74713          	not	a4,a4
    1c9c:	01f59593          	slli	a1,a1,0x1f
    1ca0:	00e7f7b3          	and	a5,a5,a4
    1ca4:	00b7e7b3          	or	a5,a5,a1
    1ca8:	00098513          	mv	a0,s3
    1cac:	01412483          	lw	s1,20(sp)
    1cb0:	01012903          	lw	s2,16(sp)
    1cb4:	00c12983          	lw	s3,12(sp)
    1cb8:	00078593          	mv	a1,a5
    1cbc:	02010113          	addi	sp,sp,32
    1cc0:	00008067          	ret
    1cc4:	00c5e733          	or	a4,a1,a2
    1cc8:	f4070ae3          	beqz	a4,1c1c <__subdf3+0x68>
    1ccc:	41148833          	sub	a6,s1,a7
    1cd0:	f4869ce3          	bne	a3,s0,1c28 <__subdf3+0x74>
    1cd4:	33005063          	blez	a6,1ff4 <__subdf3+0x440>
    1cd8:	0c089263          	bnez	a7,1d9c <__subdf3+0x1e8>
    1cdc:	00c5e733          	or	a4,a1,a2
    1ce0:	f4070ce3          	beqz	a4,1c38 <__subdf3+0x84>
    1ce4:	fff80713          	addi	a4,a6,-1
    1ce8:	48071c63          	bnez	a4,2180 <__subdf3+0x5cc>
    1cec:	00c509b3          	add	s3,a0,a2
    1cf0:	00b78933          	add	s2,a5,a1
    1cf4:	00a9b533          	sltu	a0,s3,a0
    1cf8:	00a90333          	add	t1,s2,a0
    1cfc:	00831793          	slli	a5,t1,0x8
    1d00:	00100493          	li	s1,1
    1d04:	2a07d663          	bgez	a5,1fb0 <__subdf3+0x3fc>
    1d08:	00200493          	li	s1,2
    1d0c:	0f80006f          	j	1e04 <__subdf3+0x250>
    1d10:	22081063          	bnez	a6,1f30 <__subdf3+0x37c>
    1d14:	00148713          	addi	a4,s1,1
    1d18:	7ff77713          	andi	a4,a4,2047
    1d1c:	00100813          	li	a6,1
    1d20:	36e85663          	ble	a4,a6,208c <__subdf3+0x4d8>
    1d24:	40c509b3          	sub	s3,a0,a2
    1d28:	01353733          	sltu	a4,a0,s3
    1d2c:	40b78933          	sub	s2,a5,a1
    1d30:	40e90933          	sub	s2,s2,a4
    1d34:	00891713          	slli	a4,s2,0x8
    1d38:	3a074a63          	bltz	a4,20ec <__subdf3+0x538>
    1d3c:	0129e7b3          	or	a5,s3,s2
    1d40:	16079e63          	bnez	a5,1ebc <__subdf3+0x308>
    1d44:	00000413          	li	s0,0
    1d48:	00000993          	li	s3,0
    1d4c:	00040813          	mv	a6,s0
    1d50:	f09ff06f          	j	1c58 <__subdf3+0xa4>
    1d54:	008006b7          	lui	a3,0x800
    1d58:	7ff00713          	li	a4,2047
    1d5c:	00d5e5b3          	or	a1,a1,a3
    1d60:	22e48c63          	beq	s1,a4,1f98 <__subdf3+0x3e4>
    1d64:	03800713          	li	a4,56
    1d68:	31074663          	blt	a4,a6,2074 <__subdf3+0x4c0>
    1d6c:	01f00713          	li	a4,31
    1d70:	3b075063          	ble	a6,a4,2110 <__subdf3+0x55c>
    1d74:	02000713          	li	a4,32
    1d78:	0105d6b3          	srl	a3,a1,a6
    1d7c:	00e80a63          	beq	a6,a4,1d90 <__subdf3+0x1dc>
    1d80:	04000913          	li	s2,64
    1d84:	41090833          	sub	a6,s2,a6
    1d88:	01059933          	sll	s2,a1,a6
    1d8c:	01266633          	or	a2,a2,s2
    1d90:	00c03633          	snez	a2,a2
    1d94:	00d666b3          	or	a3,a2,a3
    1d98:	2e40006f          	j	207c <__subdf3+0x4c8>
    1d9c:	008006b7          	lui	a3,0x800
    1da0:	7ff00713          	li	a4,2047
    1da4:	00d5e5b3          	or	a1,a1,a3
    1da8:	1ee48863          	beq	s1,a4,1f98 <__subdf3+0x3e4>
    1dac:	03800713          	li	a4,56
    1db0:	35074a63          	blt	a4,a6,2104 <__subdf3+0x550>
    1db4:	01f00713          	li	a4,31
    1db8:	4b074663          	blt	a4,a6,2264 <__subdf3+0x6b0>
    1dbc:	02000713          	li	a4,32
    1dc0:	41070733          	sub	a4,a4,a6
    1dc4:	010656b3          	srl	a3,a2,a6
    1dc8:	00e599b3          	sll	s3,a1,a4
    1dcc:	00e61633          	sll	a2,a2,a4
    1dd0:	00d9e9b3          	or	s3,s3,a3
    1dd4:	0105d933          	srl	s2,a1,a6
    1dd8:	00c036b3          	snez	a3,a2
    1ddc:	00d9e6b3          	or	a3,s3,a3
    1de0:	012787b3          	add	a5,a5,s2
    1de4:	00a689b3          	add	s3,a3,a0
    1de8:	00a9b533          	sltu	a0,s3,a0
    1dec:	00f50333          	add	t1,a0,a5
    1df0:	00831793          	slli	a5,t1,0x8
    1df4:	1a07de63          	bgez	a5,1fb0 <__subdf3+0x3fc>
    1df8:	00148493          	addi	s1,s1,1
    1dfc:	7ff00793          	li	a5,2047
    1e00:	1ef48063          	beq	s1,a5,1fe0 <__subdf3+0x42c>
    1e04:	ff800937          	lui	s2,0xff800
    1e08:	fff90913          	addi	s2,s2,-1 # ff7fffff <_etext+0xff7fd68b>
    1e0c:	0019d793          	srli	a5,s3,0x1
    1e10:	01237933          	and	s2,t1,s2
    1e14:	0019f693          	andi	a3,s3,1
    1e18:	00d7e6b3          	or	a3,a5,a3
    1e1c:	01f91993          	slli	s3,s2,0x1f
    1e20:	00d9e9b3          	or	s3,s3,a3
    1e24:	00195313          	srli	t1,s2,0x1
    1e28:	0079f793          	andi	a5,s3,7
    1e2c:	02078063          	beqz	a5,1e4c <__subdf3+0x298>
    1e30:	00f9f593          	andi	a1,s3,15
    1e34:	00400793          	li	a5,4
    1e38:	00f58a63          	beq	a1,a5,1e4c <__subdf3+0x298>
    1e3c:	00498713          	addi	a4,s3,4
    1e40:	013736b3          	sltu	a3,a4,s3
    1e44:	00d30333          	add	t1,t1,a3
    1e48:	00070993          	mv	s3,a4
    1e4c:	00831793          	slli	a5,t1,0x8
    1e50:	5c07da63          	bgez	a5,2424 <__subdf3+0x870>
    1e54:	00148813          	addi	a6,s1,1
    1e58:	7ff00793          	li	a5,2047
    1e5c:	00147593          	andi	a1,s0,1
    1e60:	18f80263          	beq	a6,a5,1fe4 <__subdf3+0x430>
    1e64:	ff800737          	lui	a4,0xff800
    1e68:	fff70713          	addi	a4,a4,-1 # ff7fffff <_etext+0xff7fd68b>
    1e6c:	00e37733          	and	a4,t1,a4
    1e70:	0039d693          	srli	a3,s3,0x3
    1e74:	00971793          	slli	a5,a4,0x9
    1e78:	01d71993          	slli	s3,a4,0x1d
    1e7c:	00d9e9b3          	or	s3,s3,a3
    1e80:	00c7d793          	srli	a5,a5,0xc
    1e84:	7ff87813          	andi	a6,a6,2047
    1e88:	de5ff06f          	j	1c6c <__subdf3+0xb8>
    1e8c:	fff80713          	addi	a4,a6,-1
    1e90:	14071063          	bnez	a4,1fd0 <__subdf3+0x41c>
    1e94:	40c509b3          	sub	s3,a0,a2
    1e98:	40b78933          	sub	s2,a5,a1
    1e9c:	01353533          	sltu	a0,a0,s3
    1ea0:	40a90333          	sub	t1,s2,a0
    1ea4:	00100493          	li	s1,1
    1ea8:	00831793          	slli	a5,t1,0x8
    1eac:	1007d263          	bgez	a5,1fb0 <__subdf3+0x3fc>
    1eb0:	00800937          	lui	s2,0x800
    1eb4:	fff90913          	addi	s2,s2,-1 # 7fffff <_etext+0x7fd68b>
    1eb8:	01237933          	and	s2,t1,s2
    1ebc:	1a090463          	beqz	s2,2064 <__subdf3+0x4b0>
    1ec0:	00090513          	mv	a0,s2
    1ec4:	6b4000ef          	jal	ra,2578 <__clzsi2>
    1ec8:	ff850813          	addi	a6,a0,-8
    1ecc:	01f00793          	li	a5,31
    1ed0:	1707c663          	blt	a5,a6,203c <__subdf3+0x488>
    1ed4:	02000313          	li	t1,32
    1ed8:	41030333          	sub	t1,t1,a6
    1edc:	0069d333          	srl	t1,s3,t1
    1ee0:	01091933          	sll	s2,s2,a6
    1ee4:	01236933          	or	s2,t1,s2
    1ee8:	010999b3          	sll	s3,s3,a6
    1eec:	16984063          	blt	a6,s1,204c <__subdf3+0x498>
    1ef0:	40980833          	sub	a6,a6,s1
    1ef4:	00180713          	addi	a4,a6,1
    1ef8:	01f00793          	li	a5,31
    1efc:	1ae7cc63          	blt	a5,a4,20b4 <__subdf3+0x500>
    1f00:	02000793          	li	a5,32
    1f04:	40e787b3          	sub	a5,a5,a4
    1f08:	00f996b3          	sll	a3,s3,a5
    1f0c:	00e9d633          	srl	a2,s3,a4
    1f10:	00f917b3          	sll	a5,s2,a5
    1f14:	00c7e7b3          	or	a5,a5,a2
    1f18:	00d036b3          	snez	a3,a3
    1f1c:	00d7e9b3          	or	s3,a5,a3
    1f20:	00e95333          	srl	t1,s2,a4
    1f24:	0079f793          	andi	a5,s3,7
    1f28:	00000493          	li	s1,0
    1f2c:	f01ff06f          	j	1e2c <__subdf3+0x278>
    1f30:	20048663          	beqz	s1,213c <__subdf3+0x588>
    1f34:	7ff00713          	li	a4,2047
    1f38:	30e88863          	beq	a7,a4,2248 <__subdf3+0x694>
    1f3c:	00800737          	lui	a4,0x800
    1f40:	41000833          	neg	a6,a6
    1f44:	00e7e7b3          	or	a5,a5,a4
    1f48:	03800713          	li	a4,56
    1f4c:	3b074063          	blt	a4,a6,22ec <__subdf3+0x738>
    1f50:	01f00713          	li	a4,31
    1f54:	43074e63          	blt	a4,a6,2390 <__subdf3+0x7dc>
    1f58:	02000713          	li	a4,32
    1f5c:	41070733          	sub	a4,a4,a6
    1f60:	00e799b3          	sll	s3,a5,a4
    1f64:	01055333          	srl	t1,a0,a6
    1f68:	00e51733          	sll	a4,a0,a4
    1f6c:	0069e9b3          	or	s3,s3,t1
    1f70:	00e03733          	snez	a4,a4
    1f74:	0107d833          	srl	a6,a5,a6
    1f78:	00e9e9b3          	or	s3,s3,a4
    1f7c:	410585b3          	sub	a1,a1,a6
    1f80:	413609b3          	sub	s3,a2,s3
    1f84:	01363633          	sltu	a2,a2,s3
    1f88:	40c58333          	sub	t1,a1,a2
    1f8c:	00088493          	mv	s1,a7
    1f90:	00068413          	mv	s0,a3
    1f94:	f15ff06f          	j	1ea8 <__subdf3+0x2f4>
    1f98:	00a7e733          	or	a4,a5,a0
    1f9c:	04070263          	beqz	a4,1fe0 <__subdf3+0x42c>
    1fa0:	7ff00813          	li	a6,2047
    1fa4:	c9dff06f          	j	1c40 <__subdf3+0x8c>
    1fa8:	0069e7b3          	or	a5,s3,t1
    1fac:	d8078ce3          	beqz	a5,1d44 <__subdf3+0x190>
    1fb0:	0079f793          	andi	a5,s3,7
    1fb4:	e6079ee3          	bnez	a5,1e30 <__subdf3+0x27c>
    1fb8:	01d31793          	slli	a5,t1,0x1d
    1fbc:	0039d693          	srli	a3,s3,0x3
    1fc0:	00f6e9b3          	or	s3,a3,a5
    1fc4:	00048813          	mv	a6,s1
    1fc8:	00335793          	srli	a5,t1,0x3
    1fcc:	c85ff06f          	j	1c50 <__subdf3+0x9c>
    1fd0:	7ff00693          	li	a3,2047
    1fd4:	18d81663          	bne	a6,a3,2160 <__subdf3+0x5ac>
    1fd8:	00a7e733          	or	a4,a5,a0
    1fdc:	c60712e3          	bnez	a4,1c40 <__subdf3+0x8c>
    1fe0:	00147593          	andi	a1,s0,1
    1fe4:	7ff00813          	li	a6,2047
    1fe8:	00000793          	li	a5,0
    1fec:	00000993          	li	s3,0
    1ff0:	c7dff06f          	j	1c6c <__subdf3+0xb8>
    1ff4:	18081e63          	bnez	a6,2190 <__subdf3+0x5dc>
    1ff8:	00148893          	addi	a7,s1,1
    1ffc:	7ff8f813          	andi	a6,a7,2047
    2000:	00100713          	li	a4,1
    2004:	1d075663          	ble	a6,a4,21d0 <__subdf3+0x61c>
    2008:	7ff00713          	li	a4,2047
    200c:	fce88ae3          	beq	a7,a4,1fe0 <__subdf3+0x42c>
    2010:	00c50633          	add	a2,a0,a2
    2014:	00b78933          	add	s2,a5,a1
    2018:	00a63533          	sltu	a0,a2,a0
    201c:	00a90533          	add	a0,s2,a0
    2020:	01f51693          	slli	a3,a0,0x1f
    2024:	00165613          	srli	a2,a2,0x1
    2028:	00c6e9b3          	or	s3,a3,a2
    202c:	00155313          	srli	t1,a0,0x1
    2030:	0079f793          	andi	a5,s3,7
    2034:	00088493          	mv	s1,a7
    2038:	df5ff06f          	j	1e2c <__subdf3+0x278>
    203c:	fd850913          	addi	s2,a0,-40
    2040:	01299933          	sll	s2,s3,s2
    2044:	00000993          	li	s3,0
    2048:	ea9854e3          	ble	s1,a6,1ef0 <__subdf3+0x33c>
    204c:	ff800737          	lui	a4,0xff800
    2050:	fff70713          	addi	a4,a4,-1 # ff7fffff <_etext+0xff7fd68b>
    2054:	410484b3          	sub	s1,s1,a6
    2058:	00e97333          	and	t1,s2,a4
    205c:	0079f793          	andi	a5,s3,7
    2060:	dcdff06f          	j	1e2c <__subdf3+0x278>
    2064:	00098513          	mv	a0,s3
    2068:	510000ef          	jal	ra,2578 <__clzsi2>
    206c:	02050513          	addi	a0,a0,32
    2070:	e59ff06f          	j	1ec8 <__subdf3+0x314>
    2074:	00c5e633          	or	a2,a1,a2
    2078:	00c036b3          	snez	a3,a2
    207c:	40d509b3          	sub	s3,a0,a3
    2080:	01353533          	sltu	a0,a0,s3
    2084:	40a78333          	sub	t1,a5,a0
    2088:	e21ff06f          	j	1ea8 <__subdf3+0x2f4>
    208c:	00a7e733          	or	a4,a5,a0
    2090:	00c5e9b3          	or	s3,a1,a2
    2094:	0c049a63          	bnez	s1,2168 <__subdf3+0x5b4>
    2098:	2a071a63          	bnez	a4,234c <__subdf3+0x798>
    209c:	32098c63          	beqz	s3,23d4 <__subdf3+0x820>
    20a0:	00058793          	mv	a5,a1
    20a4:	00060513          	mv	a0,a2
    20a8:	00048813          	mv	a6,s1
    20ac:	00068413          	mv	s0,a3
    20b0:	b91ff06f          	j	1c40 <__subdf3+0x8c>
    20b4:	fe180813          	addi	a6,a6,-31
    20b8:	02000793          	li	a5,32
    20bc:	01095833          	srl	a6,s2,a6
    20c0:	00f70a63          	beq	a4,a5,20d4 <__subdf3+0x520>
    20c4:	04000313          	li	t1,64
    20c8:	40e30333          	sub	t1,t1,a4
    20cc:	00691933          	sll	s2,s2,t1
    20d0:	0129e9b3          	or	s3,s3,s2
    20d4:	013036b3          	snez	a3,s3
    20d8:	0106e9b3          	or	s3,a3,a6
    20dc:	0079f793          	andi	a5,s3,7
    20e0:	00000313          	li	t1,0
    20e4:	00000493          	li	s1,0
    20e8:	ecdff06f          	j	1fb4 <__subdf3+0x400>
    20ec:	40a609b3          	sub	s3,a2,a0
    20f0:	40f58933          	sub	s2,a1,a5
    20f4:	01363633          	sltu	a2,a2,s3
    20f8:	40c90933          	sub	s2,s2,a2
    20fc:	00068413          	mv	s0,a3
    2100:	dbdff06f          	j	1ebc <__subdf3+0x308>
    2104:	00c5e633          	or	a2,a1,a2
    2108:	00c036b3          	snez	a3,a2
    210c:	cd9ff06f          	j	1de4 <__subdf3+0x230>
    2110:	02000713          	li	a4,32
    2114:	41070733          	sub	a4,a4,a6
    2118:	010656b3          	srl	a3,a2,a6
    211c:	00e599b3          	sll	s3,a1,a4
    2120:	00e61633          	sll	a2,a2,a4
    2124:	00d9e9b3          	or	s3,s3,a3
    2128:	0105d933          	srl	s2,a1,a6
    212c:	00c036b3          	snez	a3,a2
    2130:	00d9e6b3          	or	a3,s3,a3
    2134:	412787b3          	sub	a5,a5,s2
    2138:	f45ff06f          	j	207c <__subdf3+0x4c8>
    213c:	00a7e733          	or	a4,a5,a0
    2140:	0e071a63          	bnez	a4,2234 <__subdf3+0x680>
    2144:	7ff00793          	li	a5,2047
    2148:	10f88063          	beq	a7,a5,2248 <__subdf3+0x694>
    214c:	00088813          	mv	a6,a7
    2150:	00068413          	mv	s0,a3
    2154:	00058793          	mv	a5,a1
    2158:	00060513          	mv	a0,a2
    215c:	ae5ff06f          	j	1c40 <__subdf3+0x8c>
    2160:	00070813          	mv	a6,a4
    2164:	c01ff06f          	j	1d64 <__subdf3+0x1b0>
    2168:	1a071663          	bnez	a4,2314 <__subdf3+0x760>
    216c:	1a099063          	bnez	s3,230c <__subdf3+0x758>
    2170:	00000593          	li	a1,0
    2174:	7ff00813          	li	a6,2047
    2178:	000807b7          	lui	a5,0x80
    217c:	af1ff06f          	j	1c6c <__subdf3+0xb8>
    2180:	7ff00693          	li	a3,2047
    2184:	e4d80ae3          	beq	a6,a3,1fd8 <__subdf3+0x424>
    2188:	00070813          	mv	a6,a4
    218c:	c21ff06f          	j	1dac <__subdf3+0x1f8>
    2190:	0e049e63          	bnez	s1,228c <__subdf3+0x6d8>
    2194:	00a7e733          	or	a4,a5,a0
    2198:	18071463          	bnez	a4,2320 <__subdf3+0x76c>
    219c:	7ff00793          	li	a5,2047
    21a0:	18f88a63          	beq	a7,a5,2334 <__subdf3+0x780>
    21a4:	00088813          	mv	a6,a7
    21a8:	00058793          	mv	a5,a1
    21ac:	00060513          	mv	a0,a2
    21b0:	a91ff06f          	j	1c40 <__subdf3+0x8c>
    21b4:	0137e7b3          	or	a5,a5,s3
    21b8:	e20784e3          	beqz	a5,1fe0 <__subdf3+0x42c>
    21bc:	00000593          	li	a1,0
    21c0:	7ff00813          	li	a6,2047
    21c4:	000807b7          	lui	a5,0x80
    21c8:	00000993          	li	s3,0
    21cc:	aa1ff06f          	j	1c6c <__subdf3+0xb8>
    21d0:	00a7e733          	or	a4,a5,a0
    21d4:	12049263          	bnez	s1,22f8 <__subdf3+0x744>
    21d8:	04070463          	beqz	a4,2220 <__subdf3+0x66c>
    21dc:	00c5e733          	or	a4,a1,a2
    21e0:	02070c63          	beqz	a4,2218 <__subdf3+0x664>
    21e4:	00c509b3          	add	s3,a0,a2
    21e8:	00b78933          	add	s2,a5,a1
    21ec:	00a9b533          	sltu	a0,s3,a0
    21f0:	00a90333          	add	t1,s2,a0
    21f4:	00831713          	slli	a4,t1,0x8
    21f8:	0079f793          	andi	a5,s3,7
    21fc:	da075ce3          	bgez	a4,1fb4 <__subdf3+0x400>
    2200:	ff800737          	lui	a4,0xff800
    2204:	fff70713          	addi	a4,a4,-1 # ff7fffff <_etext+0xff7fd68b>
    2208:	00e37333          	and	t1,t1,a4
    220c:	00100493          	li	s1,1
    2210:	c1dff06f          	j	1e2c <__subdf3+0x278>
    2214:	00040693          	mv	a3,s0
    2218:	00078593          	mv	a1,a5
    221c:	00050613          	mv	a2,a0
    2220:	00048813          	mv	a6,s1
    2224:	00068413          	mv	s0,a3
    2228:	00058793          	mv	a5,a1
    222c:	00060513          	mv	a0,a2
    2230:	a11ff06f          	j	1c40 <__subdf3+0x8c>
    2234:	fff00713          	li	a4,-1
    2238:	18e80063          	beq	a6,a4,23b8 <__subdf3+0x804>
    223c:	7ff00713          	li	a4,2047
    2240:	fff84813          	not	a6,a6
    2244:	d0e892e3          	bne	a7,a4,1f48 <__subdf3+0x394>
    2248:	00c5e7b3          	or	a5,a1,a2
    224c:	00068413          	mv	s0,a3
    2250:	d80788e3          	beqz	a5,1fe0 <__subdf3+0x42c>
    2254:	00058793          	mv	a5,a1
    2258:	00060513          	mv	a0,a2
    225c:	7ff00813          	li	a6,2047
    2260:	9e1ff06f          	j	1c40 <__subdf3+0x8c>
    2264:	02000713          	li	a4,32
    2268:	0105d6b3          	srl	a3,a1,a6
    226c:	00e80a63          	beq	a6,a4,2280 <__subdf3+0x6cc>
    2270:	04000913          	li	s2,64
    2274:	41090833          	sub	a6,s2,a6
    2278:	01059933          	sll	s2,a1,a6
    227c:	01266633          	or	a2,a2,s2
    2280:	00c03633          	snez	a2,a2
    2284:	00d666b3          	or	a3,a2,a3
    2288:	b5dff06f          	j	1de4 <__subdf3+0x230>
    228c:	7ff00713          	li	a4,2047
    2290:	0ae88263          	beq	a7,a4,2334 <__subdf3+0x780>
    2294:	00800737          	lui	a4,0x800
    2298:	41000833          	neg	a6,a6
    229c:	00e7e7b3          	or	a5,a5,a4
    22a0:	03800713          	li	a4,56
    22a4:	0f074063          	blt	a4,a6,2384 <__subdf3+0x7d0>
    22a8:	01f00713          	li	a4,31
    22ac:	13074c63          	blt	a4,a6,23e4 <__subdf3+0x830>
    22b0:	02000713          	li	a4,32
    22b4:	41070733          	sub	a4,a4,a6
    22b8:	01055333          	srl	t1,a0,a6
    22bc:	00e796b3          	sll	a3,a5,a4
    22c0:	00e51533          	sll	a0,a0,a4
    22c4:	0066e6b3          	or	a3,a3,t1
    22c8:	00a039b3          	snez	s3,a0
    22cc:	0107d833          	srl	a6,a5,a6
    22d0:	0136e6b3          	or	a3,a3,s3
    22d4:	010585b3          	add	a1,a1,a6
    22d8:	00c689b3          	add	s3,a3,a2
    22dc:	00c9b633          	sltu	a2,s3,a2
    22e0:	00b60333          	add	t1,a2,a1
    22e4:	00088493          	mv	s1,a7
    22e8:	b09ff06f          	j	1df0 <__subdf3+0x23c>
    22ec:	00a7e533          	or	a0,a5,a0
    22f0:	00a039b3          	snez	s3,a0
    22f4:	c8dff06f          	j	1f80 <__subdf3+0x3cc>
    22f8:	00070a63          	beqz	a4,230c <__subdf3+0x758>
    22fc:	00c5e633          	or	a2,a1,a2
    2300:	ea061ee3          	bnez	a2,21bc <__subdf3+0x608>
    2304:	7ff00813          	li	a6,2047
    2308:	939ff06f          	j	1c40 <__subdf3+0x8c>
    230c:	7ff00493          	li	s1,2047
    2310:	f11ff06f          	j	2220 <__subdf3+0x66c>
    2314:	ea0994e3          	bnez	s3,21bc <__subdf3+0x608>
    2318:	7ff00813          	li	a6,2047
    231c:	925ff06f          	j	1c40 <__subdf3+0x8c>
    2320:	fff00713          	li	a4,-1
    2324:	0ee80463          	beq	a6,a4,240c <__subdf3+0x858>
    2328:	7ff00713          	li	a4,2047
    232c:	fff84813          	not	a6,a6
    2330:	f6e898e3          	bne	a7,a4,22a0 <__subdf3+0x6ec>
    2334:	00c5e7b3          	or	a5,a1,a2
    2338:	ca0784e3          	beqz	a5,1fe0 <__subdf3+0x42c>
    233c:	00058793          	mv	a5,a1
    2340:	00060513          	mv	a0,a2
    2344:	7ff00813          	li	a6,2047
    2348:	8f9ff06f          	j	1c40 <__subdf3+0x8c>
    234c:	ec0984e3          	beqz	s3,2214 <__subdf3+0x660>
    2350:	40c509b3          	sub	s3,a0,a2
    2354:	40b78333          	sub	t1,a5,a1
    2358:	01353933          	sltu	s2,a0,s3
    235c:	41230333          	sub	t1,t1,s2
    2360:	00831713          	slli	a4,t1,0x8
    2364:	c40752e3          	bgez	a4,1fa8 <__subdf3+0x3f4>
    2368:	40a609b3          	sub	s3,a2,a0
    236c:	40f58933          	sub	s2,a1,a5
    2370:	01363633          	sltu	a2,a2,s3
    2374:	40c90333          	sub	t1,s2,a2
    2378:	0079f793          	andi	a5,s3,7
    237c:	00068413          	mv	s0,a3
    2380:	aadff06f          	j	1e2c <__subdf3+0x278>
    2384:	00a7e533          	or	a0,a5,a0
    2388:	00a036b3          	snez	a3,a0
    238c:	f4dff06f          	j	22d8 <__subdf3+0x724>
    2390:	02000713          	li	a4,32
    2394:	0107d9b3          	srl	s3,a5,a6
    2398:	00e80a63          	beq	a6,a4,23ac <__subdf3+0x7f8>
    239c:	04000713          	li	a4,64
    23a0:	41070833          	sub	a6,a4,a6
    23a4:	010797b3          	sll	a5,a5,a6
    23a8:	00f56533          	or	a0,a0,a5
    23ac:	00a03533          	snez	a0,a0
    23b0:	013569b3          	or	s3,a0,s3
    23b4:	bcdff06f          	j	1f80 <__subdf3+0x3cc>
    23b8:	40a609b3          	sub	s3,a2,a0
    23bc:	40f58933          	sub	s2,a1,a5
    23c0:	01363633          	sltu	a2,a2,s3
    23c4:	40c90333          	sub	t1,s2,a2
    23c8:	00088493          	mv	s1,a7
    23cc:	00068413          	mv	s0,a3
    23d0:	ad9ff06f          	j	1ea8 <__subdf3+0x2f4>
    23d4:	00000413          	li	s0,0
    23d8:	00040813          	mv	a6,s0
    23dc:	00000793          	li	a5,0
    23e0:	879ff06f          	j	1c58 <__subdf3+0xa4>
    23e4:	02000713          	li	a4,32
    23e8:	0107d6b3          	srl	a3,a5,a6
    23ec:	00e80a63          	beq	a6,a4,2400 <__subdf3+0x84c>
    23f0:	04000713          	li	a4,64
    23f4:	41070833          	sub	a6,a4,a6
    23f8:	010797b3          	sll	a5,a5,a6
    23fc:	00f56533          	or	a0,a0,a5
    2400:	00a03533          	snez	a0,a0
    2404:	00d566b3          	or	a3,a0,a3
    2408:	ed1ff06f          	j	22d8 <__subdf3+0x724>
    240c:	00c509b3          	add	s3,a0,a2
    2410:	00b78933          	add	s2,a5,a1
    2414:	00c9b633          	sltu	a2,s3,a2
    2418:	00c90333          	add	t1,s2,a2
    241c:	00088493          	mv	s1,a7
    2420:	9d1ff06f          	j	1df0 <__subdf3+0x23c>
    2424:	00048813          	mv	a6,s1
    2428:	00030793          	mv	a5,t1
    242c:	00098513          	mv	a0,s3
    2430:	811ff06f          	j	1c40 <__subdf3+0x8c>

00002434 <__fixdfsi>:
__fixdfsi():
    2434:	0145d793          	srli	a5,a1,0x14
    2438:	001006b7          	lui	a3,0x100
    243c:	fff68713          	addi	a4,a3,-1 # fffff <_etext+0xfd68b>
    2440:	7ff7f793          	andi	a5,a5,2047
    2444:	3fe00613          	li	a2,1022
    2448:	00b77733          	and	a4,a4,a1
    244c:	01f5d593          	srli	a1,a1,0x1f
    2450:	04f65663          	ble	a5,a2,249c <__fixdfsi+0x68>
    2454:	41d00613          	li	a2,1053
    2458:	02f64a63          	blt	a2,a5,248c <__fixdfsi+0x58>
    245c:	43300613          	li	a2,1075
    2460:	40f60633          	sub	a2,a2,a5
    2464:	01f00813          	li	a6,31
    2468:	00d76733          	or	a4,a4,a3
    246c:	02c85c63          	ble	a2,a6,24a4 <__fixdfsi+0x70>
    2470:	41300693          	li	a3,1043
    2474:	40f687b3          	sub	a5,a3,a5
    2478:	00f757b3          	srl	a5,a4,a5
    247c:	40f00533          	neg	a0,a5
    2480:	02059063          	bnez	a1,24a0 <__fixdfsi+0x6c>
    2484:	00078513          	mv	a0,a5
    2488:	00008067          	ret
    248c:	80000537          	lui	a0,0x80000
    2490:	fff54513          	not	a0,a0
    2494:	00a58533          	add	a0,a1,a0
    2498:	00008067          	ret
    249c:	00000513          	li	a0,0
    24a0:	00008067          	ret
    24a4:	bed78793          	addi	a5,a5,-1043 # 7fbed <_etext+0x7d279>
    24a8:	00f717b3          	sll	a5,a4,a5
    24ac:	00c55533          	srl	a0,a0,a2
    24b0:	00a7e7b3          	or	a5,a5,a0
    24b4:	fc9ff06f          	j	247c <__fixdfsi+0x48>

000024b8 <__floatunsidf>:
__floatunsidf():
    24b8:	ff010113          	addi	sp,sp,-16
    24bc:	00112623          	sw	ra,12(sp)
    24c0:	00812423          	sw	s0,8(sp)
    24c4:	0a050263          	beqz	a0,2568 <__floatunsidf+0xb0>
    24c8:	00050413          	mv	s0,a0
    24cc:	0ac000ef          	jal	ra,2578 <__clzsi2>
    24d0:	41e00693          	li	a3,1054
    24d4:	40a686b3          	sub	a3,a3,a0
    24d8:	00a00793          	li	a5,10
    24dc:	7ff6f693          	andi	a3,a3,2047
    24e0:	06a7d263          	ble	a0,a5,2544 <__floatunsidf+0x8c>
    24e4:	ff550793          	addi	a5,a0,-11 # 7ffffff5 <_etext+0x7fffd681>
    24e8:	00100737          	lui	a4,0x100
    24ec:	00f417b3          	sll	a5,s0,a5
    24f0:	fff70713          	addi	a4,a4,-1 # fffff <_etext+0xfd68b>
    24f4:	00e7f7b3          	and	a5,a5,a4
    24f8:	00000513          	li	a0,0
    24fc:	00100737          	lui	a4,0x100
    2500:	fff70713          	addi	a4,a4,-1 # fffff <_etext+0xfd68b>
    2504:	00e7f7b3          	and	a5,a5,a4
    2508:	80100737          	lui	a4,0x80100
    250c:	fff70713          	addi	a4,a4,-1 # 800fffff <_etext+0x800fd68b>
    2510:	01469693          	slli	a3,a3,0x14
    2514:	00e7f733          	and	a4,a5,a4
    2518:	00d76733          	or	a4,a4,a3
    251c:	00c12083          	lw	ra,12(sp)
    2520:	00812403          	lw	s0,8(sp)
    2524:	800006b7          	lui	a3,0x80000
    2528:	fff6c693          	not	a3,a3
    252c:	00050793          	mv	a5,a0
    2530:	00d77733          	and	a4,a4,a3
    2534:	00078513          	mv	a0,a5
    2538:	00070593          	mv	a1,a4
    253c:	01010113          	addi	sp,sp,16
    2540:	00008067          	ret
    2544:	00b00793          	li	a5,11
    2548:	40a787b3          	sub	a5,a5,a0
    254c:	00100737          	lui	a4,0x100
    2550:	01550513          	addi	a0,a0,21
    2554:	00f457b3          	srl	a5,s0,a5
    2558:	fff70713          	addi	a4,a4,-1 # fffff <_etext+0xfd68b>
    255c:	00a41533          	sll	a0,s0,a0
    2560:	00e7f7b3          	and	a5,a5,a4
    2564:	f99ff06f          	j	24fc <__floatunsidf+0x44>
    2568:	00000693          	li	a3,0
    256c:	00000793          	li	a5,0
    2570:	00000513          	li	a0,0
    2574:	f89ff06f          	j	24fc <__floatunsidf+0x44>

00002578 <__clzsi2>:
__clzsi2():
    2578:	000107b7          	lui	a5,0x10
    257c:	02f57463          	bleu	a5,a0,25a4 <__clzsi2+0x2c>
    2580:	0ff00793          	li	a5,255
    2584:	02000713          	li	a4,32
    2588:	04a7e263          	bltu	a5,a0,25cc <__clzsi2+0x54>
    258c:	00000797          	auipc	a5,0x0
    2590:	2e878793          	addi	a5,a5,744 # 2874 <__clz_tab>
    2594:	00a78533          	add	a0,a5,a0
    2598:	00054503          	lbu	a0,0(a0)
    259c:	40a70533          	sub	a0,a4,a0
    25a0:	00008067          	ret
    25a4:	010007b7          	lui	a5,0x1000
    25a8:	04f56263          	bltu	a0,a5,25ec <__clzsi2+0x74>
    25ac:	00000797          	auipc	a5,0x0
    25b0:	2c878793          	addi	a5,a5,712 # 2874 <__clz_tab>
    25b4:	01855513          	srli	a0,a0,0x18
    25b8:	00a78533          	add	a0,a5,a0
    25bc:	00054503          	lbu	a0,0(a0)
    25c0:	00800713          	li	a4,8
    25c4:	40a70533          	sub	a0,a4,a0
    25c8:	00008067          	ret
    25cc:	00000797          	auipc	a5,0x0
    25d0:	2a878793          	addi	a5,a5,680 # 2874 <__clz_tab>
    25d4:	00855513          	srli	a0,a0,0x8
    25d8:	00a78533          	add	a0,a5,a0
    25dc:	00054503          	lbu	a0,0(a0)
    25e0:	01800713          	li	a4,24
    25e4:	40a70533          	sub	a0,a4,a0
    25e8:	00008067          	ret
    25ec:	00000797          	auipc	a5,0x0
    25f0:	28878793          	addi	a5,a5,648 # 2874 <__clz_tab>
    25f4:	01055513          	srli	a0,a0,0x10
    25f8:	00a78533          	add	a0,a5,a0
    25fc:	00054503          	lbu	a0,0(a0)
    2600:	01000713          	li	a4,16
    2604:	40a70533          	sub	a0,a4,a0
    2608:	00008067          	ret
    260c:	6f697067          	0x6f697067
    2610:	7320                	flw	fs0,96(a4)
    2612:	6375                	lui	t1,0x1d
    2614:	73736563          	bltu	t1,s7,2d3e <_etext+0x3ca>
    2618:	000a                	c.slli	zero,0x2
    261a:	0000                	unimp
    261c:	6f697067          	0x6f697067
    2620:	6620                	flw	fs0,72(a2)
    2622:	6961                	lui	s2,0x18
    2624:	656c                	flw	fa1,76(a0)
    2626:	0a64                	addi	s1,sp,284
    2628:	0000                	unimp
    262a:	0000                	unimp
    262c:	656c                	flw	fa1,76(a0)
    262e:	5f64                	lw	s1,124(a4)
    2630:	6c62                	flw	fs8,24(sp)
    2632:	6e69                	lui	t3,0x1a
    2634:	6b6f206b          	0x6b6f206b
    2638:	000a                	c.slli	zero,0x2
    263a:	0000                	unimp
    263c:	0000                	unimp
    263e:	0000                	unimp
    2640:	7cee                	flw	fs9,248(sp)
    2642:	ba5e353f aaab4040 	0xaaab4040ba5e353f
    264a:	aaaa                	fsd	fa0,336(sp)
    264c:	aaaa                	fsd	fa0,336(sp)
    264e:	4040                	lw	s0,4(s0)
    2650:	6548                	flw	fa0,12(a0)
    2652:	6c6c                	flw	fa1,92(s0)
    2654:	6952206f          	j	254e8 <_etext+0x22b74>
    2658:	562d6373          	csrrsi	t1,0x562,26
    265c:	5020                	lw	s0,96(s0)
    265e:	6e61                	lui	t3,0x18
    2660:	32206f67          	0x32206f67
    2664:	3130                	fld	fa2,96(a0)
    2666:	0a39                	addi	s4,s4,14
    2668:	0000                	unimp
    266a:	0000                	unimp
    266c:	3032                	fld	ft0,296(sp)
    266e:	3931                	jal	228a <__subdf3+0x6d6>
    2670:	0000                	unimp
    2672:	0000                	unimp
    2674:	6574                	flw	fa3,76(a0)
    2676:	64207473          	csrrci	s0,0x642,0
    267a:	7461                	lui	s0,0xffff8
    267c:	2061                	jal	2704 <__clzsi2+0x18c>
    267e:	203d                	jal	26ac <__clzsi2+0x134>
    2680:	6425                	lui	s0,0x9
    2682:	252c                	fld	fa1,72(a0)
    2684:	2c66                	fld	fs8,88(sp)
    2686:	7325                	lui	t1,0xfffe9
    2688:	302c                	fld	fa1,96(s0)
    268a:	2078                	fld	fa4,192(s0)
    268c:	203d                	jal	26ba <__clzsi2+0x142>
    268e:	7825                	lui	a6,0xfffe9
    2690:	000a                	c.slli	zero,0x2
    2692:	0000                	unimp
    2694:	706d6973          	csrrsi	s2,0x706,26
    2698:	656c                	flw	fa1,76(a0)
    269a:	6320                	flw	fs0,64(a4)
    269c:	75706d6f          	jal	s10,95f2 <_etext+0x6c7e>
    26a0:	6574                	flw	fa3,76(a0)
    26a2:	3a20                	fld	fs0,112(a2)
    26a4:	3520                	fld	fs0,104(a0)
    26a6:	2a30                	fld	fa2,80(a2)
    26a8:	3031                	jal	1eb4 <__subdf3+0x300>
    26aa:	3d20                	fld	fs0,120(a0)
    26ac:	2520                	fld	fs0,72(a0)
    26ae:	2c64                	fld	fs1,216(s0)
    26b0:	3031                	jal	1ebc <__subdf3+0x308>
    26b2:	2f30                	fld	fa2,88(a4)
    26b4:	203d2033          	0x203d2033
    26b8:	6625                	lui	a2,0x9
    26ba:	312c                	fld	fa1,96(a0)
    26bc:	3030                	fld	fa2,96(s0)
    26be:	3325                	jal	23e6 <__subdf3+0x832>
    26c0:	3d20                	fld	fs0,120(a0)
    26c2:	2520                	fld	fs0,72(a0)
    26c4:	0a64                	addi	s1,sp,284
    26c6:	0000                	unimp
    26c8:	13e4                	addi	s1,sp,492
    26ca:	0000                	unimp
    26cc:	13e4                	addi	s1,sp,492
    26ce:	0000                	unimp
    26d0:	13e4                	addi	s1,sp,492
    26d2:	0000                	unimp
    26d4:	13e4                	addi	s1,sp,492
    26d6:	0000                	unimp
    26d8:	13e4                	addi	s1,sp,492
    26da:	0000                	unimp
    26dc:	13e4                	addi	s1,sp,492
    26de:	0000                	unimp
    26e0:	13e4                	addi	s1,sp,492
    26e2:	0000                	unimp
    26e4:	13e4                	addi	s1,sp,492
    26e6:	0000                	unimp
    26e8:	13e4                	addi	s1,sp,492
    26ea:	0000                	unimp
    26ec:	13e4                	addi	s1,sp,492
    26ee:	0000                	unimp
    26f0:	13e4                	addi	s1,sp,492
    26f2:	0000                	unimp
    26f4:	13e4                	addi	s1,sp,492
    26f6:	0000                	unimp
    26f8:	13e4                	addi	s1,sp,492
    26fa:	0000                	unimp
    26fc:	13e4                	addi	s1,sp,492
    26fe:	0000                	unimp
    2700:	13e4                	addi	s1,sp,492
    2702:	0000                	unimp
    2704:	13e4                	addi	s1,sp,492
    2706:	0000                	unimp
    2708:	13e4                	addi	s1,sp,492
    270a:	0000                	unimp
    270c:	13e4                	addi	s1,sp,492
    270e:	0000                	unimp
    2710:	13e4                	addi	s1,sp,492
    2712:	0000                	unimp
    2714:	13e4                	addi	s1,sp,492
    2716:	0000                	unimp
    2718:	13e4                	addi	s1,sp,492
    271a:	0000                	unimp
    271c:	13e4                	addi	s1,sp,492
    271e:	0000                	unimp
    2720:	13e4                	addi	s1,sp,492
    2722:	0000                	unimp
    2724:	13e4                	addi	s1,sp,492
    2726:	0000                	unimp
    2728:	13e4                	addi	s1,sp,492
    272a:	0000                	unimp
    272c:	13e4                	addi	s1,sp,492
    272e:	0000                	unimp
    2730:	13e4                	addi	s1,sp,492
    2732:	0000                	unimp
    2734:	13e4                	addi	s1,sp,492
    2736:	0000                	unimp
    2738:	13e4                	addi	s1,sp,492
    273a:	0000                	unimp
    273c:	13e4                	addi	s1,sp,492
    273e:	0000                	unimp
    2740:	13e4                	addi	s1,sp,492
    2742:	0000                	unimp
    2744:	141c                	addi	a5,sp,544
    2746:	0000                	unimp
    2748:	13e4                	addi	s1,sp,492
    274a:	0000                	unimp
    274c:	13e4                	addi	s1,sp,492
    274e:	0000                	unimp
    2750:	13e4                	addi	s1,sp,492
    2752:	0000                	unimp
    2754:	13e4                	addi	s1,sp,492
    2756:	0000                	unimp
    2758:	13e4                	addi	s1,sp,492
    275a:	0000                	unimp
    275c:	13e4                	addi	s1,sp,492
    275e:	0000                	unimp
    2760:	13e4                	addi	s1,sp,492
    2762:	0000                	unimp
    2764:	13e4                	addi	s1,sp,492
    2766:	0000                	unimp
    2768:	13e4                	addi	s1,sp,492
    276a:	0000                	unimp
    276c:	13e4                	addi	s1,sp,492
    276e:	0000                	unimp
    2770:	13e4                	addi	s1,sp,492
    2772:	0000                	unimp
    2774:	13e4                	addi	s1,sp,492
    2776:	0000                	unimp
    2778:	13e4                	addi	s1,sp,492
    277a:	0000                	unimp
    277c:	13e4                	addi	s1,sp,492
    277e:	0000                	unimp
    2780:	142e                	slli	s0,s0,0x2b
    2782:	0000                	unimp
    2784:	13e4                	addi	s1,sp,492
    2786:	0000                	unimp
    2788:	13e4                	addi	s1,sp,492
    278a:	0000                	unimp
    278c:	13e4                	addi	s1,sp,492
    278e:	0000                	unimp
    2790:	13e4                	addi	s1,sp,492
    2792:	0000                	unimp
    2794:	1406                	slli	s0,s0,0x21
    2796:	0000                	unimp
    2798:	13e4                	addi	s1,sp,492
    279a:	0000                	unimp
    279c:	13e4                	addi	s1,sp,492
    279e:	0000                	unimp
    27a0:	13e4                	addi	s1,sp,492
    27a2:	0000                	unimp
    27a4:	13e4                	addi	s1,sp,492
    27a6:	0000                	unimp
    27a8:	13e4                	addi	s1,sp,492
    27aa:	0000                	unimp
    27ac:	13e4                	addi	s1,sp,492
    27ae:	0000                	unimp
    27b0:	13e4                	addi	s1,sp,492
    27b2:	0000                	unimp
    27b4:	13e4                	addi	s1,sp,492
    27b6:	0000                	unimp
    27b8:	13e4                	addi	s1,sp,492
    27ba:	0000                	unimp
    27bc:	13e4                	addi	s1,sp,492
    27be:	0000                	unimp
    27c0:	13f0                	addi	a2,sp,492
    27c2:	0000                	unimp
    27c4:	141c                	addi	a5,sp,544
    27c6:	0000                	unimp
    27c8:	13e4                	addi	s1,sp,492
    27ca:	0000                	unimp
    27cc:	1458                	addi	a4,sp,548
    27ce:	0000                	unimp
    27d0:	13e4                	addi	s1,sp,492
    27d2:	0000                	unimp
    27d4:	13e4                	addi	s1,sp,492
    27d6:	0000                	unimp
    27d8:	141c                	addi	a5,sp,544
    27da:	0000                	unimp
    27dc:	13e4                	addi	s1,sp,492
    27de:	0000                	unimp
    27e0:	13e4                	addi	s1,sp,492
    27e2:	0000                	unimp
    27e4:	13e4                	addi	s1,sp,492
    27e6:	0000                	unimp
    27e8:	13e4                	addi	s1,sp,492
    27ea:	0000                	unimp
    27ec:	13e4                	addi	s1,sp,492
    27ee:	0000                	unimp
    27f0:	13e4                	addi	s1,sp,492
    27f2:	0000                	unimp
    27f4:	13e4                	addi	s1,sp,492
    27f6:	0000                	unimp
    27f8:	13e4                	addi	s1,sp,492
    27fa:	0000                	unimp
    27fc:	13e4                	addi	s1,sp,492
    27fe:	0000                	unimp
    2800:	142e                	slli	s0,s0,0x2b
    2802:	0000                	unimp
    2804:	13e4                	addi	s1,sp,492
    2806:	0000                	unimp
    2808:	13e4                	addi	s1,sp,492
    280a:	0000                	unimp
    280c:	13e4                	addi	s1,sp,492
    280e:	0000                	unimp
    2810:	13e4                	addi	s1,sp,492
    2812:	0000                	unimp
    2814:	1406                	slli	s0,s0,0x21
    2816:	0000                	unimp
    2818:	0000                	unimp
    281a:	0000                	unimp
    281c:	8480                	0x8480
    281e:	412e                	lw	sp,200(sp)
    2820:	3130                	fld	fa2,96(a0)
    2822:	3332                	fld	ft6,296(sp)
    2824:	3534                	fld	fa3,104(a0)
    2826:	3736                	fld	fa4,360(sp)
    2828:	3938                	fld	fa4,112(a0)
    282a:	6261                	lui	tp,0x18
    282c:	66656463          	bltu	a0,t1,2e94 <_etext+0x520>
    2830:	0000                	unimp
    2832:	0000                	unimp
    2834:	efb0                	fsw	fa2,88(a5)
    2836:	ffff                	0xffff
    2838:	eedc                	fsw	fa5,28(a3)
    283a:	ffff                	0xffff
    283c:	eedc                	fsw	fa5,28(a3)
    283e:	ffff                	0xffff
    2840:	eed8                	fsw	fa4,28(a3)
    2842:	ffff                	0xffff
    2844:	eefc                	fsw	fa5,92(a3)
    2846:	ffff                	0xffff
    2848:	eefc                	fsw	fa5,92(a3)
    284a:	ffff                	0xffff
    284c:	ee6c                	fsw	fa1,92(a2)
    284e:	ffff                	0xffff
    2850:	eed8                	fsw	fa4,28(a3)
    2852:	ffff                	0xffff
    2854:	eefc                	fsw	fa5,92(a3)
    2856:	ffff                	0xffff
    2858:	ee6c                	fsw	fa1,92(a2)
    285a:	ffff                	0xffff
    285c:	eefc                	fsw	fa5,92(a3)
    285e:	ffff                	0xffff
    2860:	eed8                	fsw	fa4,28(a3)
    2862:	ffff                	0xffff
    2864:	eef8                	fsw	fa4,92(a3)
    2866:	ffff                	0xffff
    2868:	eef8                	fsw	fa4,92(a3)
    286a:	ffff                	0xffff
    286c:	eef8                	fsw	fa4,92(a3)
    286e:	ffff                	0xffff
    2870:	ee6c                	fsw	fa1,92(a2)
    2872:	ffff                	0xffff

00002874 <__clz_tab>:
    2874:	0100 0202 0303 0303 0404 0404 0404 0404     ................
    2884:	0505 0505 0505 0505 0505 0505 0505 0505     ................
    2894:	0606 0606 0606 0606 0606 0606 0606 0606     ................
    28a4:	0606 0606 0606 0606 0606 0606 0606 0606     ................
    28b4:	0707 0707 0707 0707 0707 0707 0707 0707     ................
    28c4:	0707 0707 0707 0707 0707 0707 0707 0707     ................
    28d4:	0707 0707 0707 0707 0707 0707 0707 0707     ................
    28e4:	0707 0707 0707 0707 0707 0707 0707 0707     ................
    28f4:	0808 0808 0808 0808 0808 0808 0808 0808     ................
    2904:	0808 0808 0808 0808 0808 0808 0808 0808     ................
    2914:	0808 0808 0808 0808 0808 0808 0808 0808     ................
    2924:	0808 0808 0808 0808 0808 0808 0808 0808     ................
    2934:	0808 0808 0808 0808 0808 0808 0808 0808     ................
    2944:	0808 0808 0808 0808 0808 0808 0808 0808     ................
    2954:	0808 0808 0808 0808 0808 0808 0808 0808     ................
    2964:	0808 0808 0808 0808 0808 0808 0808 0808     ................
