   1              		.file	"firmware.c"
   2              		.option nopic
   3              		.text
   4              	.Ltext0:
   5              		.cfi_sections	.debug_frame
   6              		.section	.text.putchar,"ax",@progbits
   7              		.align	2
   8              		.globl	putchar
  10              	putchar:
  11              	.LFB0:
  12              		.file 1 "../src/firmware.c"
   1:../src/firmware.c **** /*
   2:../src/firmware.c ****  *  PicoSoC - A simple example SoC using PicoRV32
   3:../src/firmware.c ****  *
   4:../src/firmware.c ****  *  Copyright (C) 2017  Clifford Wolf <clifford@clifford.at>
   5:../src/firmware.c ****  *
   6:../src/firmware.c ****  *  Permission to use, copy, modify, and/or distribute this software for any
   7:../src/firmware.c ****  *  purpose with or without fee is hereby granted, provided that the above
   8:../src/firmware.c ****  *  copyright notice and this permission notice appear in all copies.
   9:../src/firmware.c ****  *
  10:../src/firmware.c ****  *  THE SOFTWARE IS PROVIDED "AS IS" AND THE AUTHOR DISCLAIMS ALL WARRANTIES
  11:../src/firmware.c ****  *  WITH REGARD TO THIS SOFTWARE INCLUDING ALL IMPLIED WARRANTIES OF
  12:../src/firmware.c ****  *  MERCHANTABILITY AND FITNESS. IN NO EVENT SHALL THE AUTHOR BE LIABLE FOR
  13:../src/firmware.c ****  *  ANY SPECIAL, DIRECT, INDIRECT, OR CONSEQUENTIAL DAMAGES OR ANY DAMAGES
  14:../src/firmware.c ****  *  WHATSOEVER RESULTING FROM LOSS OF USE, DATA OR PROFITS, WHETHER IN AN
  15:../src/firmware.c ****  *  ACTION OF CONTRACT, NEGLIGENCE OR OTHER TORTIOUS ACTION, ARISING OUT OF
  16:../src/firmware.c ****  *  OR IN CONNECTION WITH THE USE OR PERFORMANCE OF THIS SOFTWARE.
  17:../src/firmware.c ****  *
  18:../src/firmware.c ****  */
  19:../src/firmware.c **** 
  20:../src/firmware.c **** #include <stdint.h>
  21:../src/firmware.c **** #include <stdbool.h>
  22:../src/firmware.c **** 
  23:../src/firmware.c **** 
  24:../src/firmware.c **** 
  25:../src/firmware.c **** // a pointer to this is a null pointer, but the compiler does not
  26:../src/firmware.c **** // know that because "sram" is a linker symbol from sections.lds.
  27:../src/firmware.c **** 
  28:../src/firmware.c **** #define reg_spictrl     (*(volatile uint32_t*)0x02000000)
  29:../src/firmware.c **** #define reg_uart_clkdiv (*(volatile uint32_t*)0x02000004)
  30:../src/firmware.c **** #define reg_uart_data   (*(volatile uint32_t*)0x02000008)
  31:../src/firmware.c **** 
  32:../src/firmware.c **** 
  33:../src/firmware.c **** void putchar(char c)
  34:../src/firmware.c **** {
  13              		.loc 1 34 0
  14              		.cfi_startproc
  15              	.LVL0:
  16 0000 130101FF 		addi	sp,sp,-16
  17              		.cfi_def_cfa_offset 16
  18 0004 23248100 		sw	s0,8(sp)
  19 0008 23261100 		sw	ra,12(sp)
  20              		.cfi_offset 8, -8
  21              		.cfi_offset 1, -4
  35:../src/firmware.c **** 	if (c == '\n')
  22              		.loc 1 35 0
  23 000c 9307A000 		li	a5,10
  34:../src/firmware.c **** 	if (c == '\n')
  24              		.loc 1 34 0
  25 0010 13040500 		mv	s0,a0
  26              		.loc 1 35 0
  27 0014 6318F500 		bne	a0,a5,.L2
  36:../src/firmware.c **** 		putchar('\r');
  28              		.loc 1 36 0
  29 0018 1305D000 		li	a0,13
  30              	.LVL1:
  31 001c 97000000 		call	putchar
  31      E7800000 
  32              	.LVL2:
  33              	.L2:
  37:../src/firmware.c **** 	reg_uart_data = c;
  34              		.loc 1 37 0
  35 0024 B7070002 		li	a5,33554432
  36 0028 23A48700 		sw	s0,8(a5)
  38:../src/firmware.c **** }
  37              		.loc 1 38 0
  38 002c 8320C100 		lw	ra,12(sp)
  39              		.cfi_restore 1
  40 0030 03248100 		lw	s0,8(sp)
  41              		.cfi_restore 8
  42 0034 13010101 		addi	sp,sp,16
  43              		.cfi_def_cfa_offset 0
  44 0038 67800000 		jr	ra
  45              		.cfi_endproc
  46              	.LFE0:
  48              		.section	.text.print,"ax",@progbits
  49              		.align	2
  50              		.globl	print
  52              	print:
  53              	.LFB1:
  39:../src/firmware.c **** 
  40:../src/firmware.c **** void print(const char *p)
  41:../src/firmware.c **** {
  54              		.loc 1 41 0
  55              		.cfi_startproc
  56              	.LVL3:
  57 0000 130101FF 		addi	sp,sp,-16
  58              		.cfi_def_cfa_offset 16
  59 0004 23248100 		sw	s0,8(sp)
  60 0008 23261100 		sw	ra,12(sp)
  61              		.cfi_offset 8, -8
  62              		.cfi_offset 1, -4
  63 000c 13040500 		mv	s0,a0
  64              	.LVL4:
  65              	.L5:
  42:../src/firmware.c **** 	while (*p)
  66              		.loc 1 42 0
  67 0010 03450400 		lbu	a0,0(s0)
  68 0014 631A0500 		bnez	a0,.L6
  43:../src/firmware.c **** 		putchar(*(p++));
  44:../src/firmware.c **** }
  69              		.loc 1 44 0
  70 0018 8320C100 		lw	ra,12(sp)
  71              		.cfi_remember_state
  72              		.cfi_restore 1
  73 001c 03248100 		lw	s0,8(sp)
  74              		.cfi_restore 8
  75              	.LVL5:
  76 0020 13010101 		addi	sp,sp,16
  77              		.cfi_def_cfa_offset 0
  78 0024 67800000 		jr	ra
  79              	.LVL6:
  80              	.L6:
  81              		.cfi_restore_state
  43:../src/firmware.c **** 		putchar(*(p++));
  82              		.loc 1 43 0
  83 0028 13041400 		addi	s0,s0,1
  84              	.LVL7:
  85 002c 97000000 		call	putchar
  85      E7800000 
  86              	.LVL8:
  87 0034 6FF0DFFD 		j	.L5
  88              		.cfi_endproc
  89              	.LFE1:
  91              		.section	.text.print_hex,"ax",@progbits
  92              		.align	2
  93              		.globl	print_hex
  95              	print_hex:
  96              	.LFB2:
  45:../src/firmware.c **** 
  46:../src/firmware.c **** void print_hex(uint32_t v, int digits)
  47:../src/firmware.c **** {
  97              		.loc 1 47 0
  98              		.cfi_startproc
  99              	.LVL9:
 100 0000 130101FE 		addi	sp,sp,-32
 101              		.cfi_def_cfa_offset 32
 102 0004 232A9100 		sw	s1,20(sp)
 103              		.cfi_offset 9, -12
 104              	.LBB40:
 105              	.LBB41:
  48:../src/firmware.c **** 	for (int i = 7; i >= 0; i--) {
  49:../src/firmware.c **** 		char c = "0123456789abcdef"[(v >> (4*i)) & 15];
 106              		.loc 1 49 0
 107 0008 B7040000 		lui	s1,%hi(.LC0)
 108              	.LBE41:
 109              	.LBE40:
  47:../src/firmware.c **** 	for (int i = 7; i >= 0; i--) {
 110              		.loc 1 47 0
 111 000c 232C8100 		sw	s0,24(sp)
 112 0010 23282101 		sw	s2,16(sp)
 113 0014 23263101 		sw	s3,12(sp)
 114 0018 23244101 		sw	s4,8(sp)
 115 001c 232E1100 		sw	ra,28(sp)
 116              		.cfi_offset 8, -8
 117              		.cfi_offset 18, -16
 118              		.cfi_offset 19, -20
 119              		.cfi_offset 20, -24
 120              		.cfi_offset 1, -4
  47:../src/firmware.c **** 	for (int i = 7; i >= 0; i--) {
 121              		.loc 1 47 0
 122 0020 93090500 		mv	s3,a0
 123              	.LBB44:
  48:../src/firmware.c **** 	for (int i = 7; i >= 0; i--) {
 124              		.loc 1 48 0
 125 0024 13047000 		li	s0,7
 126              	.LBB42:
 127              		.loc 1 49 0
 128 0028 93840400 		addi	s1,s1,%lo(.LC0)
  50:../src/firmware.c **** 		if (c == '0' && i >= digits) continue;
 129              		.loc 1 50 0
 130 002c 130A0003 		li	s4,48
 131              	.LBE42:
  48:../src/firmware.c **** 	for (int i = 7; i >= 0; i--) {
 132              		.loc 1 48 0
 133 0030 1309F0FF 		li	s2,-1
 134              	.LVL10:
 135              	.L11:
 136              	.LBB43:
  49:../src/firmware.c **** 		if (c == '0' && i >= digits) continue;
 137              		.loc 1 49 0
 138 0034 93172400 		slli	a5,s0,2
 139 0038 B3D7F900 		srl	a5,s3,a5
 140 003c 93F7F700 		andi	a5,a5,15
 141 0040 B3879700 		add	a5,a5,s1
 142 0044 03C50700 		lbu	a0,0(a5)
 143              	.LVL11:
 144              		.loc 1 50 0
 145 0048 63144501 		bne	a0,s4,.L9
 146              		.loc 1 50 0 is_stmt 0 discriminator 1
 147 004c 6358B400 		ble	a1,s0,.L10
 148              	.L9:
  51:../src/firmware.c **** 		putchar(c);
 149              		.loc 1 51 0 is_stmt 1
 150 0050 97000000 		call	putchar
 150      E7800000 
 151              	.LVL12:
 152 0058 93050400 		mv	a1,s0
 153              	.LVL13:
 154              	.L10:
 155              	.LBE43:
  48:../src/firmware.c **** 		char c = "0123456789abcdef"[(v >> (4*i)) & 15];
 156              		.loc 1 48 0 discriminator 2
 157 005c 1304F4FF 		addi	s0,s0,-1
 158              	.LVL14:
 159 0060 E31A24FD 		bne	s0,s2,.L11
 160              	.LBE44:
  52:../src/firmware.c **** 		digits = i;
  53:../src/firmware.c **** 	}
  54:../src/firmware.c **** }
 161              		.loc 1 54 0
 162 0064 8320C101 		lw	ra,28(sp)
 163              		.cfi_restore 1
 164 0068 03248101 		lw	s0,24(sp)
 165              		.cfi_restore 8
 166              	.LVL15:
 167 006c 83244101 		lw	s1,20(sp)
 168              		.cfi_restore 9
 169 0070 03290101 		lw	s2,16(sp)
 170              		.cfi_restore 18
 171 0074 8329C100 		lw	s3,12(sp)
 172              		.cfi_restore 19
 173              	.LVL16:
 174 0078 032A8100 		lw	s4,8(sp)
 175              		.cfi_restore 20
 176 007c 13010102 		addi	sp,sp,32
 177              		.cfi_def_cfa_offset 0
 178 0080 67800000 		jr	ra
 179              		.cfi_endproc
 180              	.LFE2:
 182              		.section	.text.print_dec,"ax",@progbits
 183              		.align	2
 184              		.globl	print_dec
 186              	print_dec:
 187              	.LFB3:
  55:../src/firmware.c **** 
  56:../src/firmware.c **** 
  57:../src/firmware.c **** void print_dec(uint32_t v)
  58:../src/firmware.c **** {
 188              		.loc 1 58 0
 189              		.cfi_startproc
 190              	.LVL17:
  59:../src/firmware.c **** 	if (v >= 100) {
 191              		.loc 1 59 0
 192 0000 93073006 		li	a5,99
 193 0004 63FAA700 		bleu	a0,a5,.L15
  60:../src/firmware.c **** 		print(">=100");
 194              		.loc 1 60 0
 195 0008 37050000 		lui	a0,%hi(.LC1)
 196              	.LVL18:
 197 000c 13050500 		addi	a0,a0,%lo(.LC1)
 198 0010 17030000 		tail	print
 198      67000300 
 199              	.LVL19:
 200              	.L15:
  61:../src/firmware.c **** 		return;
  62:../src/firmware.c **** 	}
  63:../src/firmware.c **** 
  64:../src/firmware.c **** 	if      (v >= 90) { putchar('9'); v -= 90; }
 201              		.loc 1 64 0
 202 0018 93079005 		li	a5,89
 203 001c 63F6A702 		bleu	a0,a5,.L16
 204              	.LVL20:
 205              	.LBB45:
 206              	.LBB46:
  37:../src/firmware.c **** }
 207              		.loc 1 37 0
 208 0020 B7070002 		li	a5,33554432
 209 0024 13079003 		li	a4,57
 210 0028 23A4E700 		sw	a4,8(a5)
 211              	.LVL21:
 212              	.LBE46:
 213              	.LBE45:
 214              		.loc 1 64 0
 215 002c 130565FA 		addi	a0,a0,-90
 216              	.LVL22:
 217              	.L17:
  65:../src/firmware.c **** 	else if (v >= 80) { putchar('8'); v -= 80; }
  66:../src/firmware.c **** 	else if (v >= 70) { putchar('7'); v -= 70; }
  67:../src/firmware.c **** 	else if (v >= 60) { putchar('6'); v -= 60; }
  68:../src/firmware.c **** 	else if (v >= 50) { putchar('5'); v -= 50; }
  69:../src/firmware.c **** 	else if (v >= 40) { putchar('4'); v -= 40; }
  70:../src/firmware.c **** 	else if (v >= 30) { putchar('3'); v -= 30; }
  71:../src/firmware.c **** 	else if (v >= 20) { putchar('2'); v -= 20; }
  72:../src/firmware.c **** 	else if (v >= 10) { putchar('1'); v -= 10; }
  73:../src/firmware.c **** 
  74:../src/firmware.c **** 	if      (v >= 9) { putchar('9'); v -= 9; }
 218              		.loc 1 74 0
 219 0030 93079000 		li	a5,9
 220 0034 631AF50E 		bne	a0,a5,.L25
 221              	.LVL23:
 222              	.LBB47:
 223              	.LBB48:
  37:../src/firmware.c **** }
 224              		.loc 1 37 0
 225 0038 B7070002 		li	a5,33554432
 226 003c 13079003 		li	a4,57
 227              	.LVL24:
 228              	.L35:
 229              	.LBE48:
 230              	.LBE47:
 231              	.LBB49:
 232              	.LBB50:
 233 0040 23A4E700 		sw	a4,8(a5)
 234              	.LBE50:
 235              	.LBE49:
  75:../src/firmware.c **** 	else if (v >= 8) { putchar('8'); v -= 8; }
  76:../src/firmware.c **** 	else if (v >= 7) { putchar('7'); v -= 7; }
  77:../src/firmware.c **** 	else if (v >= 6) { putchar('6'); v -= 6; }
  78:../src/firmware.c **** 	else if (v >= 5) { putchar('5'); v -= 5; }
  79:../src/firmware.c **** 	else if (v >= 4) { putchar('4'); v -= 4; }
  80:../src/firmware.c **** 	else if (v >= 3) { putchar('3'); v -= 3; }
  81:../src/firmware.c **** 	else if (v >= 2) { putchar('2'); v -= 2; }
  82:../src/firmware.c **** 	else if (v >= 1) { putchar('1'); v -= 1; }
  83:../src/firmware.c **** 	else putchar('0');
  84:../src/firmware.c **** }
 236              		.loc 1 84 0
 237 0044 67800000 		ret
 238              	.L16:
  65:../src/firmware.c **** 	else if (v >= 80) { putchar('8'); v -= 80; }
 239              		.loc 1 65 0
 240 0048 9307F004 		li	a5,79
 241 004c 63FCA700 		bleu	a0,a5,.L18
 242              	.LVL25:
 243              	.LBB52:
 244              	.LBB53:
  37:../src/firmware.c **** }
 245              		.loc 1 37 0
 246 0050 B7070002 		li	a5,33554432
 247 0054 13078003 		li	a4,56
 248 0058 23A4E700 		sw	a4,8(a5)
 249              	.LVL26:
 250              	.LBE53:
 251              	.LBE52:
  65:../src/firmware.c **** 	else if (v >= 80) { putchar('8'); v -= 80; }
 252              		.loc 1 65 0
 253 005c 130505FB 		addi	a0,a0,-80
 254              	.LVL27:
 255 0060 6FF01FFD 		j	.L17
 256              	.L18:
  66:../src/firmware.c **** 	else if (v >= 60) { putchar('6'); v -= 60; }
 257              		.loc 1 66 0
 258 0064 93075004 		li	a5,69
 259 0068 63FCA700 		bleu	a0,a5,.L19
 260              	.LVL28:
 261              	.LBB54:
 262              	.LBB55:
  37:../src/firmware.c **** }
 263              		.loc 1 37 0
 264 006c B7070002 		li	a5,33554432
 265 0070 13077003 		li	a4,55
 266 0074 23A4E700 		sw	a4,8(a5)
 267              	.LVL29:
 268              	.LBE55:
 269              	.LBE54:
  66:../src/firmware.c **** 	else if (v >= 60) { putchar('6'); v -= 60; }
 270              		.loc 1 66 0
 271 0078 1305A5FB 		addi	a0,a0,-70
 272              	.LVL30:
 273 007c 6FF05FFB 		j	.L17
 274              	.L19:
  67:../src/firmware.c **** 	else if (v >= 50) { putchar('5'); v -= 50; }
 275              		.loc 1 67 0
 276 0080 9307B003 		li	a5,59
 277 0084 63FCA700 		bleu	a0,a5,.L20
 278              	.LVL31:
 279              	.LBB56:
 280              	.LBB57:
  37:../src/firmware.c **** }
 281              		.loc 1 37 0
 282 0088 B7070002 		li	a5,33554432
 283 008c 13076003 		li	a4,54
 284 0090 23A4E700 		sw	a4,8(a5)
 285              	.LVL32:
 286              	.LBE57:
 287              	.LBE56:
  67:../src/firmware.c **** 	else if (v >= 50) { putchar('5'); v -= 50; }
 288              		.loc 1 67 0
 289 0094 130545FC 		addi	a0,a0,-60
 290              	.LVL33:
 291 0098 6FF09FF9 		j	.L17
 292              	.L20:
  68:../src/firmware.c **** 	else if (v >= 40) { putchar('4'); v -= 40; }
 293              		.loc 1 68 0
 294 009c 93071003 		li	a5,49
 295 00a0 63FCA700 		bleu	a0,a5,.L21
 296              	.LVL34:
 297              	.LBB58:
 298              	.LBB59:
  37:../src/firmware.c **** }
 299              		.loc 1 37 0
 300 00a4 B7070002 		li	a5,33554432
 301 00a8 13075003 		li	a4,53
 302 00ac 23A4E700 		sw	a4,8(a5)
 303              	.LVL35:
 304              	.LBE59:
 305              	.LBE58:
  68:../src/firmware.c **** 	else if (v >= 40) { putchar('4'); v -= 40; }
 306              		.loc 1 68 0
 307 00b0 1305E5FC 		addi	a0,a0,-50
 308              	.LVL36:
 309 00b4 6FF0DFF7 		j	.L17
 310              	.L21:
  69:../src/firmware.c **** 	else if (v >= 30) { putchar('3'); v -= 30; }
 311              		.loc 1 69 0
 312 00b8 93077002 		li	a5,39
 313 00bc 63FCA700 		bleu	a0,a5,.L22
 314              	.LVL37:
 315              	.LBB60:
 316              	.LBB61:
  37:../src/firmware.c **** }
 317              		.loc 1 37 0
 318 00c0 B7070002 		li	a5,33554432
 319 00c4 13074003 		li	a4,52
 320 00c8 23A4E700 		sw	a4,8(a5)
 321              	.LVL38:
 322              	.LBE61:
 323              	.LBE60:
  69:../src/firmware.c **** 	else if (v >= 30) { putchar('3'); v -= 30; }
 324              		.loc 1 69 0
 325 00cc 130585FD 		addi	a0,a0,-40
 326              	.LVL39:
 327 00d0 6FF01FF6 		j	.L17
 328              	.L22:
  70:../src/firmware.c **** 	else if (v >= 20) { putchar('2'); v -= 20; }
 329              		.loc 1 70 0
 330 00d4 9307D001 		li	a5,29
 331 00d8 63FCA700 		bleu	a0,a5,.L23
 332              	.LVL40:
 333              	.LBB62:
 334              	.LBB63:
  37:../src/firmware.c **** }
 335              		.loc 1 37 0
 336 00dc B7070002 		li	a5,33554432
 337 00e0 13073003 		li	a4,51
 338 00e4 23A4E700 		sw	a4,8(a5)
 339              	.LVL41:
 340              	.LBE63:
 341              	.LBE62:
  70:../src/firmware.c **** 	else if (v >= 20) { putchar('2'); v -= 20; }
 342              		.loc 1 70 0
 343 00e8 130525FE 		addi	a0,a0,-30
 344              	.LVL42:
 345 00ec 6FF05FF4 		j	.L17
 346              	.L23:
  71:../src/firmware.c **** 	else if (v >= 10) { putchar('1'); v -= 10; }
 347              		.loc 1 71 0
 348 00f0 93073001 		li	a5,19
 349 00f4 63FCA700 		bleu	a0,a5,.L24
 350              	.LVL43:
 351              	.LBB64:
 352              	.LBB65:
  37:../src/firmware.c **** }
 353              		.loc 1 37 0
 354 00f8 B7070002 		li	a5,33554432
 355 00fc 13072003 		li	a4,50
 356 0100 23A4E700 		sw	a4,8(a5)
 357              	.LVL44:
 358              	.LBE65:
 359              	.LBE64:
  71:../src/firmware.c **** 	else if (v >= 10) { putchar('1'); v -= 10; }
 360              		.loc 1 71 0
 361 0104 1305C5FE 		addi	a0,a0,-20
 362              	.LVL45:
 363 0108 6FF09FF2 		j	.L17
 364              	.L24:
  72:../src/firmware.c **** 
 365              		.loc 1 72 0
 366 010c 93079000 		li	a5,9
 367 0110 E3F0A7F2 		bleu	a0,a5,.L17
 368              	.LVL46:
 369              	.LBB66:
 370              	.LBB67:
  37:../src/firmware.c **** }
 371              		.loc 1 37 0
 372 0114 B7070002 		li	a5,33554432
 373 0118 13071003 		li	a4,49
 374 011c 23A4E700 		sw	a4,8(a5)
 375              	.LVL47:
 376              	.LBE67:
 377              	.LBE66:
  72:../src/firmware.c **** 
 378              		.loc 1 72 0
 379 0120 130565FF 		addi	a0,a0,-10
 380              	.LVL48:
 381 0124 6FF0DFF0 		j	.L17
 382              	.L25:
  75:../src/firmware.c **** 	else if (v >= 7) { putchar('7'); v -= 7; }
 383              		.loc 1 75 0
 384 0128 93078000 		li	a5,8
 385 012c 6318F500 		bne	a0,a5,.L27
 386              	.LVL49:
 387              	.LBB68:
 388              	.LBB69:
  37:../src/firmware.c **** }
 389              		.loc 1 37 0
 390 0130 B7070002 		li	a5,33554432
 391 0134 13078003 		li	a4,56
 392 0138 6FF09FF0 		j	.L35
 393              	.LVL50:
 394              	.L27:
 395              	.LBE69:
 396              	.LBE68:
  76:../src/firmware.c **** 	else if (v >= 6) { putchar('6'); v -= 6; }
 397              		.loc 1 76 0
 398 013c 93077000 		li	a5,7
 399 0140 6318F500 		bne	a0,a5,.L28
 400              	.LVL51:
 401              	.LBB70:
 402              	.LBB71:
  37:../src/firmware.c **** }
 403              		.loc 1 37 0
 404 0144 B7070002 		li	a5,33554432
 405 0148 13077003 		li	a4,55
 406 014c 6FF05FEF 		j	.L35
 407              	.LVL52:
 408              	.L28:
 409              	.LBE71:
 410              	.LBE70:
  77:../src/firmware.c **** 	else if (v >= 5) { putchar('5'); v -= 5; }
 411              		.loc 1 77 0
 412 0150 93076000 		li	a5,6
 413 0154 6318F500 		bne	a0,a5,.L29
 414              	.LVL53:
 415              	.LBB72:
 416              	.LBB73:
  37:../src/firmware.c **** }
 417              		.loc 1 37 0
 418 0158 B7070002 		li	a5,33554432
 419 015c 13076003 		li	a4,54
 420 0160 6FF01FEE 		j	.L35
 421              	.LVL54:
 422              	.L29:
 423              	.LBE73:
 424              	.LBE72:
  78:../src/firmware.c **** 	else if (v >= 4) { putchar('4'); v -= 4; }
 425              		.loc 1 78 0
 426 0164 93075000 		li	a5,5
 427 0168 6318F500 		bne	a0,a5,.L30
 428              	.LVL55:
 429              	.LBB74:
 430              	.LBB75:
  37:../src/firmware.c **** }
 431              		.loc 1 37 0
 432 016c B7070002 		li	a5,33554432
 433 0170 13075003 		li	a4,53
 434 0174 6FF0DFEC 		j	.L35
 435              	.LVL56:
 436              	.L30:
 437              	.LBE75:
 438              	.LBE74:
  79:../src/firmware.c **** 	else if (v >= 3) { putchar('3'); v -= 3; }
 439              		.loc 1 79 0
 440 0178 93074000 		li	a5,4
 441 017c 6318F500 		bne	a0,a5,.L31
 442              	.LVL57:
 443              	.LBB76:
 444              	.LBB77:
  37:../src/firmware.c **** }
 445              		.loc 1 37 0
 446 0180 B7070002 		li	a5,33554432
 447 0184 13074003 		li	a4,52
 448 0188 6FF09FEB 		j	.L35
 449              	.LVL58:
 450              	.L31:
 451              	.LBE77:
 452              	.LBE76:
  80:../src/firmware.c **** 	else if (v >= 2) { putchar('2'); v -= 2; }
 453              		.loc 1 80 0
 454 018c 93073000 		li	a5,3
 455 0190 6318F500 		bne	a0,a5,.L32
 456              	.LVL59:
 457              	.LBB78:
 458              	.LBB79:
  37:../src/firmware.c **** }
 459              		.loc 1 37 0
 460 0194 B7070002 		li	a5,33554432
 461 0198 13073003 		li	a4,51
 462 019c 6FF05FEA 		j	.L35
 463              	.LVL60:
 464              	.L32:
 465              	.LBE79:
 466              	.LBE78:
  81:../src/firmware.c **** 	else if (v >= 1) { putchar('1'); v -= 1; }
 467              		.loc 1 81 0
 468 01a0 93072000 		li	a5,2
 469 01a4 6318F500 		bne	a0,a5,.L33
 470              	.LVL61:
 471              	.LBB80:
 472              	.LBB81:
  37:../src/firmware.c **** }
 473              		.loc 1 37 0
 474 01a8 B7070002 		li	a5,33554432
 475 01ac 13072003 		li	a4,50
 476 01b0 6FF01FE9 		j	.L35
 477              	.LVL62:
 478              	.L33:
 479              	.LBE81:
 480              	.LBE80:
 481              	.LBB82:
 482              	.LBB83:
 483 01b4 B7070002 		li	a5,33554432
 484 01b8 13071003 		li	a4,49
 485              	.LBE83:
 486              	.LBE82:
  82:../src/firmware.c **** 	else putchar('0');
 487              		.loc 1 82 0
 488 01bc E31205E8 		bnez	a0,.L35
 489              	.LVL63:
 490              	.LBB84:
 491              	.LBB51:
  37:../src/firmware.c **** }
 492              		.loc 1 37 0
 493 01c0 13070003 		li	a4,48
 494 01c4 6FF0DFE7 		j	.L35
 495              	.LBE51:
 496              	.LBE84:
 497              		.cfi_endproc
 498              	.LFE3:
 500              		.section	.text.getchar_prompt,"ax",@progbits
 501              		.align	2
 502              		.globl	getchar_prompt
 504              	getchar_prompt:
 505              	.LFB4:
  85:../src/firmware.c **** 
  86:../src/firmware.c **** char getchar_prompt(char *prompt)
  87:../src/firmware.c **** {
 506              		.loc 1 87 0
 507              		.cfi_startproc
 508              	.LVL64:
 509 0000 130101FE 		addi	sp,sp,-32
 510              		.cfi_def_cfa_offset 32
 511 0004 232C8100 		sw	s0,24(sp)
 512 0008 232E1100 		sw	ra,28(sp)
 513 000c 232A9100 		sw	s1,20(sp)
 514 0010 23282101 		sw	s2,16(sp)
 515 0014 23263101 		sw	s3,12(sp)
 516 0018 23244101 		sw	s4,8(sp)
 517              		.cfi_offset 8, -8
 518              		.cfi_offset 1, -4
 519              		.cfi_offset 9, -12
 520              		.cfi_offset 18, -16
 521              		.cfi_offset 19, -20
 522              		.cfi_offset 20, -24
 523              		.loc 1 87 0
 524 001c 13040500 		mv	s0,a0
  88:../src/firmware.c **** 	int32_t c = -1;
  89:../src/firmware.c **** 
  90:../src/firmware.c **** 	uint32_t cycles_begin, cycles_now, cycles;
  91:../src/firmware.c **** 	__asm__ volatile ("rdcycle %0" : "=r"(cycles_begin));
 525              		.loc 1 91 0
 526              	 #APP
 527              	# 91 "../src/firmware.c" 1
  92              	
 528              		rdcycle s2
 529              	# 0 "" 2
 530              	.LVL65:
  93:../src/firmware.c **** 
  94:../src/firmware.c **** 	if (prompt)
 531              		.loc 1 94 0
 532              	 #NO_APP
 533 0024 63060500 		beqz	a0,.L37
  95:../src/firmware.c **** 		print(prompt);
 534              		.loc 1 95 0
 535 0028 97000000 		call	print
 535      E7800000 
 536              	.LVL66:
 537              	.L37:
  96:../src/firmware.c **** 
  97:../src/firmware.c **** 	while (c == -1) {
  98:../src/firmware.c **** 		__asm__ volatile ("rdcycle %0" : "=r"(cycles_now));
  99:../src/firmware.c **** 		cycles = cycles_now - cycles_begin;
 100:../src/firmware.c **** 		if (cycles > 12000000) {
 538              		.loc 1 100 0
 539 0030 B724B700 		li	s1,12001280
 540 0034 938404B0 		addi	s1,s1,-1280
 101:../src/firmware.c **** 			if (prompt)
 102:../src/firmware.c **** 				print(prompt);
 103:../src/firmware.c **** 			cycles_begin = cycles_now;
 104:../src/firmware.c **** 		}
 105:../src/firmware.c **** 		c = reg_uart_data;
 541              		.loc 1 105 0
 542 0038 370A0002 		li	s4,33554432
  97:../src/firmware.c **** 		__asm__ volatile ("rdcycle %0" : "=r"(cycles_now));
 543              		.loc 1 97 0
 544 003c 9309F0FF 		li	s3,-1
 545              	.LVL67:
 546              	.L39:
  98:../src/firmware.c **** 		cycles = cycles_now - cycles_begin;
 547              		.loc 1 98 0
 548              	 #APP
 549              	# 98 "../src/firmware.c" 1
 550              		rdcycle a5
 551              	# 0 "" 2
 552              	.LVL68:
  99:../src/firmware.c **** 		if (cycles > 12000000) {
 553              		.loc 1 99 0
 554              	 #NO_APP
 555 0044 33872741 		sub	a4,a5,s2
 556              	.LVL69:
 100:../src/firmware.c **** 			if (prompt)
 557              		.loc 1 100 0
 558 0048 63FCE400 		bleu	a4,s1,.L38
 103:../src/firmware.c **** 		}
 559              		.loc 1 103 0
 560 004c 13890700 		mv	s2,a5
 561              	.LVL70:
 101:../src/firmware.c **** 				print(prompt);
 562              		.loc 1 101 0
 563 0050 63080400 		beqz	s0,.L38
 102:../src/firmware.c **** 			cycles_begin = cycles_now;
 564              		.loc 1 102 0
 565 0054 13050400 		mv	a0,s0
 566 0058 97000000 		call	print
 566      E7800000 
 567              	.LVL71:
 568              	.L38:
 569              		.loc 1 105 0
 570 0060 03258A00 		lw	a0,8(s4)
 571              	.LVL72:
  97:../src/firmware.c **** 		__asm__ volatile ("rdcycle %0" : "=r"(cycles_now));
 572              		.loc 1 97 0
 573 0064 E30E35FD 		beq	a0,s3,.L39
 106:../src/firmware.c **** 	}
 107:../src/firmware.c **** 
 108:../src/firmware.c **** 	return c;
 109:../src/firmware.c **** }
 574              		.loc 1 109 0
 575 0068 8320C101 		lw	ra,28(sp)
 576              		.cfi_restore 1
 577 006c 03248101 		lw	s0,24(sp)
 578              		.cfi_restore 8
 579              	.LVL73:
 580 0070 83244101 		lw	s1,20(sp)
 581              		.cfi_restore 9
 582 0074 03290101 		lw	s2,16(sp)
 583              		.cfi_restore 18
 584              	.LVL74:
 585 0078 8329C100 		lw	s3,12(sp)
 586              		.cfi_restore 19
 587 007c 032A8100 		lw	s4,8(sp)
 588              		.cfi_restore 20
 589 0080 1375F50F 		andi	a0,a0,0xff
 590              	.LVL75:
 591 0084 13010102 		addi	sp,sp,32
 592              		.cfi_def_cfa_offset 0
 593 0088 67800000 		jr	ra
 594              		.cfi_endproc
 595              	.LFE4:
 597              		.section	.text.getchar,"ax",@progbits
 598              		.align	2
 599              		.globl	getchar
 601              	getchar:
 602              	.LFB5:
 110:../src/firmware.c **** 
 111:../src/firmware.c **** char getchar()
 112:../src/firmware.c **** {
 603              		.loc 1 112 0
 604              		.cfi_startproc
 113:../src/firmware.c **** 	return getchar_prompt(0);
 605              		.loc 1 113 0
 606 0000 13050000 		li	a0,0
 607 0004 17030000 		tail	getchar_prompt
 607      67000300 
 608              	.LVL76:
 609              		.cfi_endproc
 610              	.LFE5:
 612              		.section	.rodata.print_dec.str1.4,"aMS",@progbits,1
 613              		.align	2
 614              	.LC1:
 615 0000 3E3D3130 		.string	">=100"
 615      3000
 616              		.section	.rodata.print_hex.str1.4,"aMS",@progbits,1
 617              		.align	2
 618              	.LC0:
 619 0000 30313233 		.string	"0123456789abcdef"
 619      34353637 
 619      38396162 
 619      63646566 
 619      00
 620              		.text
 621              	.Letext0:
 622              		.file 2 "d:\\pico\\eclipse\\risc-v embedded gcc\\7.2.0-1-20171109-1926\\riscv-none-embed\\include\
 623              		.file 3 "d:\\pico\\eclipse\\risc-v embedded gcc\\7.2.0-1-20171109-1926\\riscv-none-embed\\include\