   1              		.file	"main.c"
   2              		.option nopic
   3              		.text
   4              	.Ltext0:
   5              		.cfi_sections	.debug_frame
   6              		.section	.text.led_blink,"ax",@progbits
   7              		.align	1
   8              		.globl	led_blink
  10              	led_blink:
  11              	.LFB1:
  12              		.file 1 "../src/main.c"
   1:../src/main.c **** #include "uart.h"
   2:../src/main.c **** #include "spi.h"
   3:../src/main.c **** 
   4:../src/main.c **** #define led_address 			(*(volatile uint32_t*)0x00008020)
   5:../src/main.c **** #define gpio_address 			(*(volatile uint32_t*)0x00008030)
   6:../src/main.c **** #define gpio_point   			(volatile uint32_t*)0x00008030
   7:../src/main.c **** 
   8:../src/main.c **** // #define SYSTEM_CNT_M			125										//系统时钟单位：MHz
   9:../src/main.c **** #define SYSTEM_CNT_M			100										//系统时钟单位：MHz
  10:../src/main.c **** #define SYSTEM_CLOCK			SYSTEM_CNT_M*1000000UL
  11:../src/main.c **** #define BAUND_9600				((SYSTEM_CLOCK)/9600)
  12:../src/main.c **** #define BAUND_115200			(SYSTEM_CLOCK/115200)
  13:../src/main.c **** #define GPIO_DATA				0xaa55
  14:../src/main.c **** #define LED_DELAY				5000000UL
  15:../src/main.c **** // #define LED_DELAY				5000UL
  16:../src/main.c **** 
  17:../src/main.c **** int temp_data = 0;
  18:../src/main.c **** void led_blink(void);
  19:../src/main.c **** 
  20:../src/main.c **** /********************************************************************
  21:../src/main.c ****  ** 函数名称：led_blink
  22:../src/main.c ****  ** 函数功能：led blin测试（采用计数器的方式）
  23:../src/main.c ****  ** 输入参数：无
  24:../src/main.c ****  ** 输出参数：无
  25:../src/main.c ****  ** 返回参数：无
  26:../src/main.c ****  ********************************************************************/
  27:../src/main.c **** void led_blink(void)
  28:../src/main.c **** {
  13              		.loc 1 28 0
  14              		.cfi_startproc
  15              	.LVL0:
  29:../src/main.c **** 	int cnt = 0;
  30:../src/main.c **** 	temp_data = *gpio_point;
  16              		.loc 1 30 0
  17 0000 A167     		li	a5,32768
  18 0002 985B     		lw	a4,48(a5)
  19 0004 B7070000 		lui	a5,%hi(.LANCHOR0)
  28:../src/main.c **** 	int cnt = 0;
  20              		.loc 1 28 0
  21 0008 0111     		addi	sp,sp,-32
  22              		.cfi_def_cfa_offset 32
  23              		.loc 1 30 0
  24 000a 23A0E700 		sw	a4,%lo(.LANCHOR0)(a5)
  31:../src/main.c **** 	if(GPIO_DATA == temp_data)
  25              		.loc 1 31 0
  26 000e AD67     		li	a5,45056
  28:../src/main.c **** 	int cnt = 0;
  27              		.loc 1 28 0
  28 0010 06CE     		sw	ra,28(sp)
  29 0012 22CC     		sw	s0,24(sp)
  30 0014 26CA     		sw	s1,20(sp)
  31 0016 4AC8     		sw	s2,16(sp)
  32 0018 4EC6     		sw	s3,12(sp)
  33 001a 52C4     		sw	s4,8(sp)
  34              		.cfi_offset 1, -4
  35              		.cfi_offset 8, -8
  36              		.cfi_offset 9, -12
  37              		.cfi_offset 18, -16
  38              		.cfi_offset 19, -20
  39              		.cfi_offset 20, -24
  40              		.loc 1 31 0
  41 001c 938757A5 		addi	a5,a5,-1451
  42 0020 6300F706 		beq	a4,a5,.L9
  32:../src/main.c **** 	{
  33:../src/main.c **** 		printk("gpio success\n");
  34:../src/main.c **** 	}
  35:../src/main.c **** 	else
  36:../src/main.c **** 	{
  37:../src/main.c **** 		printk("gpio failed\n");
  43              		.loc 1 37 0
  44 0024 37050000 		lui	a0,%hi(.LC1)
  45 0028 13050500 		addi	a0,a0,%lo(.LC1)
  46 002c 97000000 		call	printk
  46      E7800000 
  47              	.LVL1:
  48              	.L3:
  38:../src/main.c **** 	}
  39:../src/main.c **** 
  40:../src/main.c **** 	led_address = 0xff;
  49              		.loc 1 40 0
  50 0034 A167     		li	a5,32768
  51 0036 1307F00F 		li	a4,255
  41:../src/main.c **** 	while(1)
  42:../src/main.c **** 	{
  43:../src/main.c **** 		cnt++;
  44:../src/main.c **** 		if(cnt == LED_DELAY / 2)
  52              		.loc 1 44 0
  53 003a 37242600 		li	s0,2498560
  45:../src/main.c **** 		{
  46:../src/main.c **** 			led_address = 0x00;
  47:../src/main.c **** 		}
  48:../src/main.c **** 		else if(cnt == LED_DELAY)
  54              		.loc 1 48 0
  55 003e B7544C00 		li	s1,5001216
  40:../src/main.c **** 	while(1)
  56              		.loc 1 40 0
  57 0042 98D3     		sw	a4,32(a5)
  58 0044 370A0000 		lui	s4,%hi(.LC2)
  29:../src/main.c **** 	temp_data = *gpio_point;
  59              		.loc 1 29 0
  60 0048 8147     		li	a5,0
  44:../src/main.c **** 		{
  61              		.loc 1 44 0
  62 004a 1304045A 		addi	s0,s0,1440
  63              		.loc 1 48 0
  64 004e 938404B4 		addi	s1,s1,-1216
  49:../src/main.c **** 		{
  50:../src/main.c **** 			cnt = 0;
  51:../src/main.c **** 			led_address = 0xff;
  65              		.loc 1 51 0
  66 0052 2169     		li	s2,32768
  67 0054 9309F00F 		li	s3,255
  68              	.LVL2:
  69              	.L4:
  43:../src/main.c **** 		if(cnt == LED_DELAY / 2)
  70              		.loc 1 43 0
  71 0058 8507     		addi	a5,a5,1
  72              	.LVL3:
  44:../src/main.c **** 		{
  73              		.loc 1 44 0
  74 005a 63808702 		beq	a5,s0,.L10
  75              	.L5:
  48:../src/main.c **** 		{
  76              		.loc 1 48 0
  77 005e E39D97FE 		bne	a5,s1,.L4
  78              	.LVL4:
  79              		.loc 1 51 0
  80 0062 23203903 		sw	s3,32(s2)
  52:../src/main.c **** 			printk("led_blink ok\n");
  81              		.loc 1 52 0
  82 0066 13050A00 		addi	a0,s4,%lo(.LC2)
  83 006a 97000000 		call	printk
  83      E7800000 
  84              	.LVL5:
  50:../src/main.c **** 			led_address = 0xff;
  85              		.loc 1 50 0
  86 0072 8147     		li	a5,0
  87              	.LVL6:
  43:../src/main.c **** 		if(cnt == LED_DELAY / 2)
  88              		.loc 1 43 0
  89 0074 8507     		addi	a5,a5,1
  90              	.LVL7:
  44:../src/main.c **** 		{
  91              		.loc 1 44 0
  92 0076 E39487FE 		bne	a5,s0,.L5
  93              	.L10:
  46:../src/main.c **** 		}
  94              		.loc 1 46 0
  95 007a 23200902 		sw	zero,32(s2)
  96 007e E9BF     		j	.L4
  97              	.LVL8:
  98              	.L9:
  33:../src/main.c **** 	}
  99              		.loc 1 33 0
 100 0080 37050000 		lui	a0,%hi(.LC0)
 101 0084 13050500 		addi	a0,a0,%lo(.LC0)
 102 0088 97000000 		call	printk
 102      E7800000 
 103              	.LVL9:
 104 0090 55B7     		j	.L3
 105              		.cfi_endproc
 106              	.LFE1:
 108              		.section	.text.startup.main,"ax",@progbits
 109              		.align	1
 110              		.globl	main
 112              	main:
 113              	.LFB2:
  53:../src/main.c **** 		}
  54:../src/main.c **** 	}
  55:../src/main.c **** }
  56:../src/main.c **** 
  57:../src/main.c **** int main(void)
  58:../src/main.c **** {
 114              		.loc 1 58 0
 115              		.cfi_startproc
 116 0000 4111     		addi	sp,sp,-16
 117              		.cfi_def_cfa_offset 16
  59:../src/main.c **** 	reg_uart_clkdiv = BAUND_9600;
 118              		.loc 1 59 0
 119 0002 8D67     		li	a5,12288
  58:../src/main.c **** 	reg_uart_clkdiv = BAUND_9600;
 120              		.loc 1 58 0
 121 0004 06C6     		sw	ra,12(sp)
 122              		.cfi_offset 1, -4
 123              		.loc 1 59 0
 124 0006 2167     		li	a4,32768
 125 0008 9387078B 		addi	a5,a5,-1872
  60:../src/main.c **** 
  61:../src/main.c **** 	printk("Hello Risc-V Pango 2019\n");
 126              		.loc 1 61 0
 127 000c 37050000 		lui	a0,%hi(.LC3)
  59:../src/main.c **** 
 128              		.loc 1 59 0
 129 0010 1CC3     		sw	a5,0(a4)
 130              		.loc 1 61 0
 131 0012 13050500 		addi	a0,a0,%lo(.LC3)
 132 0016 97000000 		call	printk
 132      E7800000 
 133              	.LVL10:
  62:../src/main.c **** 	printk("test data = %d,%f,%s,0x = %x\n", 100,33.456,"2019",100);
 134              		.loc 1 62 0
 135 001e B7070000 		lui	a5,%hi(.LC5)
 136 0022 03A60700 		lw	a2,%lo(.LC5)(a5)
 137 0026 83A64700 		lw	a3,%lo(.LC5+4)(a5)
 138 002a 37070000 		lui	a4,%hi(.LC4)
 139 002e 37050000 		lui	a0,%hi(.LC6)
 140 0032 93074006 		li	a5,100
 141 0036 13070700 		addi	a4,a4,%lo(.LC4)
 142 003a 93054006 		li	a1,100
 143 003e 13050500 		addi	a0,a0,%lo(.LC6)
 144 0042 97000000 		call	printk
 144      E7800000 
 145              	.LVL11:
  63:../src/main.c **** 	printk("simple compute : 50*10 = %d,100/3 = %f,100%3 = %d\n", 50*10,(double)100/3,(int)100%3);
 146              		.loc 1 63 0
 147 004a B7070000 		lui	a5,%hi(.LC7)
 148 004e 03A60700 		lw	a2,%lo(.LC7)(a5)
 149 0052 83A64700 		lw	a3,%lo(.LC7+4)(a5)
 150 0056 37050000 		lui	a0,%hi(.LC8)
 151 005a 0547     		li	a4,1
 152 005c 9305401F 		li	a1,500
 153 0060 13050500 		addi	a0,a0,%lo(.LC8)
 154 0064 97000000 		call	printk
 154      E7800000 
 155              	.LVL12:
  64:../src/main.c **** 	led_blink();
 156              		.loc 1 64 0
 157 006c 97000000 		call	led_blink
 157      E7800000 
 158              	.LVL13:
 159              		.cfi_endproc
 160              	.LFE2:
 162              		.globl	temp_data
 163              		.section	.rodata.led_blink.str1.4,"aMS",@progbits,1
 164              		.align	2
 165              	.LC0:
 166 0000 6770696F 		.string	"gpio success\n"
 166      20737563 
 166      63657373 
 166      0A00
 167 000e 0000     		.zero	2
 168              	.LC1:
 169 0010 6770696F 		.string	"gpio failed\n"
 169      20666169 
 169      6C65640A 
 169      00
 170 001d 000000   		.zero	3
 171              	.LC2:
 172 0020 6C65645F 		.string	"led_blink ok\n"
 172      626C696E 
 172      6B206F6B 
 172      0A00
 173              		.section	.rodata.main.cst8,"aM",@progbits,8
 174              		.align	3
 175              	.LC5:
 176 0000 EE7C3F35 		.word	893353198
 177 0004 5EBA4040 		.word	1077983838
 178              	.LC7:
 179 0008 ABAAAAAA 		.word	-1431655765
 180 000c AAAA4040 		.word	1077979818
 181              		.section	.rodata.main.str1.4,"aMS",@progbits,1
 182              		.align	2
 183              	.LC3:
 184 0000 48656C6C 		.string	"Hello Risc-V Pango 2019\n"
 184      6F205269 
 184      73632D56 
 184      2050616E 
 184      676F2032 
 185 0019 000000   		.zero	3
 186              	.LC4:
 187 001c 32303139 		.string	"2019"
 187      00
 188 0021 000000   		.zero	3
 189              	.LC6:
 190 0024 74657374 		.string	"test data = %d,%f,%s,0x = %x\n"
 190      20646174 
 190      61203D20 
 190      25642C25 
 190      662C2573 
 191 0042 0000     		.zero	2
 192              	.LC8:
 193 0044 73696D70 		.string	"simple compute : 50*10 = %d,100/3 = %f,100%3 = %d\n"
 193      6C652063 
 193      6F6D7075 
 193      7465203A 
 193      2035302A 
 194              		.section	.sbss.temp_data,"aw",@nobits
 195              		.align	2
 196              		.set	.LANCHOR0,. + 0
 199              	temp_data:
 200 0000 00000000 		.zero	4
 201              		.text
 202              	.Letext0:
 203              		.file 2 "d:\\tools\\hummingbird\\hbird-eclipse_2018_09\\gnu mcu eclipse\\risc-v embedded gcc\\7.2.
 204              		.file 3 "d:\\tools\\hummingbird\\hbird-eclipse_2018_09\\gnu mcu eclipse\\risc-v embedded gcc\\7.2.
 205              		.file 4 "d:\\tools\\hummingbird\\hbird-eclipse_2018_09\\gnu mcu eclipse\\risc-v embedded gcc\\7.2.
 206              		.file 5 "d:\\tools\\hummingbird\\hbird-eclipse_2018_09\\gnu mcu eclipse\\risc-v embedded gcc\\7.2.
 207              		.file 6 "d:\\tools\\hummingbird\\hbird-eclipse_2018_09\\gnu mcu eclipse\\risc-v embedded gcc\\7.2.
 208              		.file 7 "d:\\tools\\hummingbird\\hbird-eclipse_2018_09\\gnu mcu eclipse\\risc-v embedded gcc\\7.2.
 209              		.file 8 "../src/uart.h"