   1              		.file	"uart.c"
   2              		.option nopic
   3              		.text
   4              	.Ltext0:
   5              		.cfi_sections	.debug_frame
   6              		.section	.text.print_num,"ax",@progbits
   7              		.align	1
   8              		.globl	print_num
  10              	print_num:
  11              	.LFB1:
  12              		.file 1 "../src/uart.c"
   1:../src/uart.c **** #include <stdint.h>
   2:../src/uart.c **** #include <stdbool.h>
   3:../src/uart.c **** #include "uart.h"
   4:../src/uart.c **** /********************************************************************
   5:../src/uart.c ****  ** 函数名称：print_num
   6:../src/uart.c ****  ** 函数功能：打印成十进制数
   7:../src/uart.c ****  ** 输入参数：num:需要打印的数字信息
   8:../src/uart.c ****  ** 		base：数据类型（十进制、十六进制、8进制等）
   9:../src/uart.c ****  ** 输出参数：无
  10:../src/uart.c ****  ** 返回参数：无
  11:../src/uart.c ****  ********************************************************************/
  12:../src/uart.c **** void print_num(uint32_t num, int base)
  13:../src/uart.c **** {
  13              		.loc 1 13 0
  14              		.cfi_startproc
  15              	.LVL0:
  14:../src/uart.c **** 	if(num == 0)
  16              		.loc 1 14 0
  17 0000 11E1     		bnez	a0,.L4
  15:../src/uart.c **** 	{
  16:../src/uart.c **** 		return;
  17:../src/uart.c **** 	}
  18:../src/uart.c **** 	print_num(num/base, base);
  19:../src/uart.c **** 	put_char("0123456789abcdef"[num%base]);							//逆序打印结果
  20:../src/uart.c **** }
  18              		.loc 1 20 0
  19 0002 8280     		ret
  20              	.L4:
  21 0004 17030000 		tail	print_num.part.0
  21      67000300 
  22              	.LVL1:
  23              		.cfi_endproc
  24              	.LFE1:
  26              		.section	.text.print_num.part.0,"ax",@progbits
  27              		.align	1
  29              	print_num.part.0:
  30              	.LFB11:
  12:../src/uart.c **** {
  31              		.loc 1 12 0
  32              		.cfi_startproc
  33              	.LVL2:
  34 0000 4111     		addi	sp,sp,-16
  35              		.cfi_def_cfa_offset 16
  36 0002 22C4     		sw	s0,8(sp)
  37              		.cfi_offset 8, -8
  38 0004 2A84     		mv	s0,a0
  18:../src/uart.c **** 	put_char("0123456789abcdef"[num%base]);							//逆序打印结果
  39              		.loc 1 18 0
  40 0006 3355B502 		divu	a0,a0,a1
  41              	.LVL3:
  12:../src/uart.c **** {
  42              		.loc 1 12 0
  43 000a 26C2     		sw	s1,4(sp)
  44              		.cfi_offset 9, -12
  45 000c AE84     		mv	s1,a1
  46 000e 06C6     		sw	ra,12(sp)
  47              		.cfi_offset 1, -4
  18:../src/uart.c **** 	put_char("0123456789abcdef"[num%base]);							//逆序打印结果
  48              		.loc 1 18 0
  49 0010 97000000 		call	print_num
  49      E7800000 
  50              	.LVL4:
  19:../src/uart.c **** }
  51              		.loc 1 19 0
  52 0018 33749402 		remu	s0,s0,s1
  53              	.LVL5:
  54 001c B7070000 		lui	a5,%hi(.LC0)
  55 0020 93870700 		addi	a5,a5,%lo(.LC0)
  56              	.LBB76:
  57              	.LBB77:
  21:../src/uart.c **** 
  22:../src/uart.c **** /********************************************************************
  23:../src/uart.c ****  ** 函数名称：put_char
  24:../src/uart.c ****  ** 函数功能：打印单个字符
  25:../src/uart.c ****  ** 输入参数：c:需要打印的字符信息
  26:../src/uart.c ****  ** 输出参数：无
  27:../src/uart.c ****  ** 返回参数：无
  28:../src/uart.c ****  ********************************************************************/
  29:../src/uart.c **** void put_char(char c)
  30:../src/uart.c **** {
  31:../src/uart.c **** 	if (c == '\n')
  58              		.loc 1 31 0
  59 0024 2947     		li	a4,10
  60              	.LBE77:
  61              	.LBE76:
  19:../src/uart.c **** }
  62              		.loc 1 19 0
  63 0026 3E94     		add	s0,s0,a5
  64 0028 83070400 		lb	a5,0(s0)
  65              	.LVL6:
  66              	.LBB86:
  67              	.LBB82:
  68              		.loc 1 31 0
  69 002c 6389E700 		beq	a5,a4,.L8
  70              	.LBE82:
  71              	.LBE86:
  20:../src/uart.c **** 
  72              		.loc 1 20 0
  73 0030 B240     		lw	ra,12(sp)
  74              		.cfi_remember_state
  75              		.cfi_restore 1
  76 0032 2244     		lw	s0,8(sp)
  77              		.cfi_restore 8
  78              	.LBB87:
  79              	.LBB83:
  32:../src/uart.c **** 		put_char('\r');
  33:../src/uart.c **** 	reg_uart_data = c;
  80              		.loc 1 33 0
  81 0034 2167     		li	a4,32768
  82 0036 1CCB     		sw	a5,16(a4)
  83              	.LBE83:
  84              	.LBE87:
  20:../src/uart.c **** 
  85              		.loc 1 20 0
  86 0038 9244     		lw	s1,4(sp)
  87              		.cfi_restore 9
  88              	.LVL7:
  89 003a 4101     		addi	sp,sp,16
  90              		.cfi_def_cfa_offset 0
  91 003c 8280     		jr	ra
  92              	.LVL8:
  93              	.L8:
  94              		.cfi_restore_state
  95              	.LBB88:
  96              	.LBB84:
  97              	.LBB78:
  98              	.LBB79:
  99              		.loc 1 33 0
 100 003e 2167     		li	a4,32768
 101              	.LBE79:
 102              	.LBE78:
 103              	.LBE84:
 104              	.LBE88:
  20:../src/uart.c **** 
 105              		.loc 1 20 0
 106 0040 B240     		lw	ra,12(sp)
 107              		.cfi_restore 1
 108 0042 2244     		lw	s0,8(sp)
 109              		.cfi_restore 8
 110              	.LBB89:
 111              	.LBB85:
 112              	.LBB81:
 113              	.LBB80:
 114              		.loc 1 33 0
 115 0044 B546     		li	a3,13
 116 0046 14CB     		sw	a3,16(a4)
 117              	.LBE80:
 118              	.LBE81:
 119 0048 2167     		li	a4,32768
 120 004a 1CCB     		sw	a5,16(a4)
 121              	.LBE85:
 122              	.LBE89:
  20:../src/uart.c **** 
 123              		.loc 1 20 0
 124 004c 9244     		lw	s1,4(sp)
 125              		.cfi_restore 9
 126              	.LVL9:
 127 004e 4101     		addi	sp,sp,16
 128              		.cfi_def_cfa_offset 0
 129 0050 8280     		jr	ra
 130              		.cfi_endproc
 131              	.LFE11:
 133              		.section	.text.put_char,"ax",@progbits
 134              		.align	1
 135              		.globl	put_char
 137              	put_char:
 138              	.LFB2:
  30:../src/uart.c **** 	if (c == '\n')
 139              		.loc 1 30 0
 140              		.cfi_startproc
 141              	.LVL10:
 142 0000 4111     		addi	sp,sp,-16
 143              		.cfi_def_cfa_offset 16
 144 0002 22C4     		sw	s0,8(sp)
 145 0004 06C6     		sw	ra,12(sp)
 146              		.cfi_offset 8, -8
 147              		.cfi_offset 1, -4
  31:../src/uart.c **** 		put_char('\r');
 148              		.loc 1 31 0
 149 0006 A947     		li	a5,10
  30:../src/uart.c **** 	if (c == '\n')
 150              		.loc 1 30 0
 151 0008 2A84     		mv	s0,a0
  31:../src/uart.c **** 		put_char('\r');
 152              		.loc 1 31 0
 153 000a 6308F500 		beq	a0,a5,.L12
 154              	.LVL11:
 155              	.L10:
 156              		.loc 1 33 0
 157 000e A167     		li	a5,32768
 158 0010 80CB     		sw	s0,16(a5)
  34:../src/uart.c **** }
 159              		.loc 1 34 0
 160 0012 B240     		lw	ra,12(sp)
 161              		.cfi_remember_state
 162              		.cfi_restore 1
 163 0014 2244     		lw	s0,8(sp)
 164              		.cfi_restore 8
 165 0016 4101     		addi	sp,sp,16
 166              		.cfi_def_cfa_offset 0
 167 0018 8280     		jr	ra
 168              	.LVL12:
 169              	.L12:
 170              		.cfi_restore_state
  32:../src/uart.c **** 	reg_uart_data = c;
 171              		.loc 1 32 0
 172 001a 3545     		li	a0,13
 173              	.LVL13:
 174 001c 97000000 		call	put_char
 174      E7800000 
 175              	.LVL14:
 176 0024 EDB7     		j	.L10
 177              		.cfi_endproc
 178              	.LFE2:
 180              		.section	.text.print_str,"ax",@progbits
 181              		.align	1
 182              		.globl	print_str
 184              	print_str:
 185              	.LFB3:
  35:../src/uart.c **** 
  36:../src/uart.c **** /********************************************************************
  37:../src/uart.c ****  ** 函数名称：print_str
  38:../src/uart.c ****  ** 函数功能：打印字符串
  39:../src/uart.c ****  ** 输入参数：*p:需要打印的字符串信息
  40:../src/uart.c ****  ** 输出参数：无
  41:../src/uart.c ****  ** 返回参数：无
  42:../src/uart.c ****  ********************************************************************/
  43:../src/uart.c **** void print_str(const char *p)
  44:../src/uart.c **** {
 186              		.loc 1 44 0
 187              		.cfi_startproc
 188              	.LVL15:
  45:../src/uart.c **** 	while (*p)
 189              		.loc 1 45 0
 190 0000 83070500 		lb	a5,0(a0)
 191 0004 8DC3     		beqz	a5,.L13
 192              	.LBB94:
 193              	.LBB95:
  31:../src/uart.c **** 		put_char('\r');
 194              		.loc 1 31 0
 195 0006 A946     		li	a3,10
 196              	.LBB96:
 197              	.LBB97:
  33:../src/uart.c **** }
 198              		.loc 1 33 0
 199 0008 2167     		li	a4,32768
 200 000a 3546     		li	a2,13
 201 000c 29A0     		j	.L16
 202              	.LVL16:
 203              	.L15:
 204              	.LBE97:
 205              	.LBE96:
 206 000e 1CCB     		sw	a5,16(a4)
 207              	.LBE95:
 208              	.LBE94:
 209              		.loc 1 45 0
 210 0010 83070500 		lb	a5,0(a0)
 211              	.LVL17:
 212 0014 89CB     		beqz	a5,.L13
 213              	.L16:
  46:../src/uart.c **** 		put_char(*(p++));
 214              		.loc 1 46 0
 215 0016 0505     		addi	a0,a0,1
 216              	.LVL18:
 217              	.LBB101:
 218              	.LBB100:
  31:../src/uart.c **** 		put_char('\r');
 219              		.loc 1 31 0
 220 0018 E39BD7FE 		bne	a5,a3,.L15
 221              	.LVL19:
 222              	.LBB99:
 223              	.LBB98:
  33:../src/uart.c **** }
 224              		.loc 1 33 0
 225 001c 10CB     		sw	a2,16(a4)
 226              	.LBE98:
 227              	.LBE99:
 228 001e 1CCB     		sw	a5,16(a4)
 229              	.LBE100:
 230              	.LBE101:
  45:../src/uart.c **** 		put_char(*(p++));
 231              		.loc 1 45 0
 232 0020 83070500 		lb	a5,0(a0)
 233              	.LVL20:
 234 0024 EDFB     		bnez	a5,.L16
 235              	.LVL21:
 236              	.L13:
  47:../src/uart.c **** }
 237              		.loc 1 47 0
 238 0026 8280     		ret
 239              		.cfi_endproc
 240              	.LFE3:
 242              		.section	.text.print_hex,"ax",@progbits
 243              		.align	1
 244              		.globl	print_hex
 246              	print_hex:
 247              	.LFB4:
  48:../src/uart.c **** 
  49:../src/uart.c **** /********************************************************************
  50:../src/uart.c ****  ** 函数名称：print_hex
  51:../src/uart.c ****  ** 函数功能：十进制转换为16进制
  52:../src/uart.c ****  ** 输入参数：v:需要转换的十进制数据
  53:../src/uart.c ****  ** 		digits：数据类型（十进制、十六进制、八进制）
  54:../src/uart.c ****  ** 输出参数：无
  55:../src/uart.c ****  ** 返回参数：无
  56:../src/uart.c ****  ********************************************************************/
  57:../src/uart.c **** void print_hex(uint32_t v, int digits)
  58:../src/uart.c **** {
 248              		.loc 1 58 0
 249              		.cfi_startproc
 250              	.LVL22:
 251 0000 B7060000 		lui	a3,%hi(.LC0)
 252              	.LBB108:
  59:../src/uart.c **** 	for (int i = 7; i >= 0; i--)
 253              		.loc 1 59 0
 254 0004 1D47     		li	a4,7
 255 0006 93860600 		addi	a3,a3,%lo(.LC0)
 256              	.LBB109:
  60:../src/uart.c **** 	{
  61:../src/uart.c **** 		char c = "0123456789abcdef"[(v >> (4*i)) & 15];
  62:../src/uart.c **** 		if (c == '0' && i >= digits)
 257              		.loc 1 62 0
 258 000a 93080003 		li	a7,48
 259              	.LBB110:
 260              	.LBB111:
  33:../src/uart.c **** }
 261              		.loc 1 33 0
 262 000e 2166     		li	a2,32768
  31:../src/uart.c **** 		put_char('\r');
 263              		.loc 1 31 0
 264 0010 2943     		li	t1,10
 265              	.LBB112:
 266              	.LBB113:
  33:../src/uart.c **** }
 267              		.loc 1 33 0
 268 0012 354E     		li	t3,13
 269              	.LBE113:
 270              	.LBE112:
 271              	.LBE111:
 272              	.LBE110:
 273              	.LBE109:
  59:../src/uart.c **** 	{
 274              		.loc 1 59 0
 275 0014 7D58     		li	a6,-1
 276 0016 01A8     		j	.L25
 277              	.LVL23:
 278              	.L22:
 279              	.LBB120:
 280              	.LBB118:
 281              	.LBB116:
  31:../src/uart.c **** 		put_char('\r');
 282              		.loc 1 31 0
 283 0018 63876702 		beq	a5,t1,.L27
 284              	.L24:
  33:../src/uart.c **** }
 285              		.loc 1 33 0
 286 001c BA85     		mv	a1,a4
 287              	.LVL24:
 288 001e 1CCA     		sw	a5,16(a2)
 289              	.LVL25:
 290              	.LBE116:
 291              	.LBE118:
 292              	.LBE120:
  59:../src/uart.c **** 	{
 293              		.loc 1 59 0
 294 0020 7D17     		addi	a4,a4,-1
 295              	.LVL26:
 296 0022 63010703 		beq	a4,a6,.L28
 297              	.LVL27:
 298              	.L25:
 299              	.LBB121:
  61:../src/uart.c **** 		if (c == '0' && i >= digits)
 300              		.loc 1 61 0
 301 0026 93172700 		slli	a5,a4,2
 302 002a B357F500 		srl	a5,a0,a5
 303 002e BD8B     		andi	a5,a5,15
 304 0030 B697     		add	a5,a3,a5
 305 0032 83870700 		lb	a5,0(a5)
 306              	.LVL28:
 307              		.loc 1 62 0
 308 0036 E39117FF 		bne	a5,a7,.L22
 309              		.loc 1 62 0 is_stmt 0 discriminator 1
 310 003a E341B7FE 		bgt	a1,a4,.L24
 311              	.LBE121:
  59:../src/uart.c **** 	{
 312              		.loc 1 59 0 is_stmt 1
 313 003e 7D17     		addi	a4,a4,-1
 314              	.LVL29:
 315 0040 E31307FF 		bne	a4,a6,.L25
 316              	.LVL30:
 317              	.L28:
 318              	.LBE108:
  63:../src/uart.c **** 			continue;
  64:../src/uart.c **** 		put_char(c);
  65:../src/uart.c **** 		digits = i;
  66:../src/uart.c **** 	}
  67:../src/uart.c **** }
 319              		.loc 1 67 0
 320 0044 8280     		ret
 321              	.LVL31:
 322              	.L27:
 323              	.LBB123:
 324              	.LBB122:
 325              	.LBB119:
 326              	.LBB117:
 327              	.LBB115:
 328              	.LBB114:
  33:../src/uart.c **** }
 329              		.loc 1 33 0
 330 0046 2328C601 		sw	t3,16(a2)
 331 004a C9BF     		j	.L24
 332              	.LBE114:
 333              	.LBE115:
 334              	.LBE117:
 335              	.LBE119:
 336              	.LBE122:
 337              	.LBE123:
 338              		.cfi_endproc
 339              	.LFE4:
 341              		.section	.text.print_hex2,"ax",@progbits
 342              		.align	1
 343              		.globl	print_hex2
 345              	print_hex2:
 346              	.LFB5:
  68:../src/uart.c **** 
  69:../src/uart.c **** /********************************************************************
  70:../src/uart.c ****  ** 函数名称：print_hex2
  71:../src/uart.c ****  ** 函数功能：十进制转换为16进制
  72:../src/uart.c ****  ** 输入参数：hex:需要转换的十进制数据
  73:../src/uart.c ****  ** 输出参数：无
  74:../src/uart.c ****  ** 返回参数：无
  75:../src/uart.c ****  ********************************************************************/
  76:../src/uart.c **** void print_hex2(uint32_t hex)
  77:../src/uart.c **** {
 347              		.loc 1 77 0
 348              		.cfi_startproc
 349              	.LVL32:
  78:../src/uart.c **** 	if(0 == hex)
 350              		.loc 1 78 0
 351 0000 11E5     		bnez	a0,.L30
 352              	.LVL33:
 353              	.LBB124:
 354              	.LBB125:
  33:../src/uart.c **** }
 355              		.loc 1 33 0
 356 0002 A167     		li	a5,32768
 357 0004 13070003 		li	a4,48
 358 0008 98CB     		sw	a4,16(a5)
 359              	.LBE125:
 360              	.LBE124:
  79:../src/uart.c **** 	{
  80:../src/uart.c **** 		put_char('0');
  81:../src/uart.c **** 		return;
  82:../src/uart.c **** 	}
  83:../src/uart.c **** 	else
  84:../src/uart.c **** 	{
  85:../src/uart.c **** 		print_num(hex, 16);											//打印十六进制数
  86:../src/uart.c **** 	}
  87:../src/uart.c **** }
 361              		.loc 1 87 0
 362 000a 8280     		ret
 363              	.LVL34:
 364              	.L30:
 365              	.LBB126:
 366              	.LBB127:
 367 000c C145     		li	a1,16
 368 000e 17030000 		tail	print_num.part.0
 368      67000300 
 369              	.LVL35:
 370              	.LBE127:
 371              	.LBE126:
 372              		.cfi_endproc
 373              	.LFE5:
 375              		.section	.text.print_dec,"ax",@progbits
 376              		.align	1
 377              		.globl	print_dec
 379              	print_dec:
 380              	.LFB6:
  88:../src/uart.c **** /********************************************************************
  89:../src/uart.c ****  ** 函数名称：print_dec
  90:../src/uart.c ****  ** 函数功能：转换成十进制打印输出
  91:../src/uart.c ****  ** 输入参数：v:打印的十进制数
  92:../src/uart.c ****  ** 输出参数：无
  93:../src/uart.c ****  ** 返回参数：无
  94:../src/uart.c ****  ********************************************************************/
  95:../src/uart.c **** void print_dec(uint32_t v)
  96:../src/uart.c **** {
 381              		.loc 1 96 0
 382              		.cfi_startproc
 383              	.LVL36:
  97:../src/uart.c **** 	if(0 == v)
 384              		.loc 1 97 0
 385 0000 11E5     		bnez	a0,.L34
 386              	.LVL37:
 387              	.LBB128:
 388              	.LBB129:
  33:../src/uart.c **** }
 389              		.loc 1 33 0
 390 0002 A167     		li	a5,32768
 391 0004 13070003 		li	a4,48
 392 0008 98CB     		sw	a4,16(a5)
 393              	.LBE129:
 394              	.LBE128:
  98:../src/uart.c **** 	{
  99:../src/uart.c **** 		put_char('0');
 100:../src/uart.c **** 		return;
 101:../src/uart.c **** 	}
 102:../src/uart.c **** 	else
 103:../src/uart.c **** 	{
 104:../src/uart.c **** 		print_num(v, 10);											//打印十进制数
 105:../src/uart.c **** 	}
 106:../src/uart.c **** }
 395              		.loc 1 106 0
 396 000a 8280     		ret
 397              	.LVL38:
 398              	.L34:
 399              	.LBB130:
 400              	.LBB131:
 401 000c A945     		li	a1,10
 402 000e 17030000 		tail	print_num.part.0
 402      67000300 
 403              	.LVL39:
 404              	.LBE131:
 405              	.LBE130:
 406              		.cfi_endproc
 407              	.LFE6:
 409              		.globl	__fixdfsi
 410              		.globl	__floatunsidf
 411              		.globl	__subdf3
 412              		.globl	__muldf3
 413              		.section	.text.print_flt,"ax",@progbits
 414              		.align	1
 415              		.globl	print_flt
 417              	print_flt:
 418              	.LFB7:
 107:../src/uart.c **** 
 108:../src/uart.c **** /********************************************************************
 109:../src/uart.c ****  ** 函数名称：print_flt
 110:../src/uart.c ****  ** 函数功能：打印浮点型数据（最多显示小数点后6）
 111:../src/uart.c ****  ** 输入参数：flt:打印的浮点数
 112:../src/uart.c ****  ** 输出参数：无
 113:../src/uart.c ****  ** 返回参数：无
 114:../src/uart.c ****  ********************************************************************/
 115:../src/uart.c **** void print_flt(double flt)
 116:../src/uart.c **** {
 419              		.loc 1 116 0
 420              		.cfi_startproc
 421              	.LVL40:
 422 0000 0111     		addi	sp,sp,-32
 423              		.cfi_def_cfa_offset 32
 424 0002 22CC     		sw	s0,24(sp)
 425 0004 4AC8     		sw	s2,16(sp)
 426 0006 4EC6     		sw	s3,12(sp)
 427 0008 06CE     		sw	ra,28(sp)
 428 000a 26CA     		sw	s1,20(sp)
 429              		.cfi_offset 8, -8
 430              		.cfi_offset 18, -16
 431              		.cfi_offset 19, -20
 432              		.cfi_offset 1, -4
 433              		.cfi_offset 9, -12
 434              		.loc 1 116 0
 435 000c 2A89     		mv	s2,a0
 436 000e AE89     		mv	s3,a1
 117:../src/uart.c **** 	uint32_t icnt = 0;
 118:../src/uart.c **** 	uint32_t tmpint = 0;
 119:../src/uart.c **** 
 120:../src/uart.c **** 	tmpint = (int)(flt);
 437              		.loc 1 120 0
 438 0010 97000000 		call	__fixdfsi
 438      E7800000 
 439              	.LVL41:
 440 0018 2A84     		mv	s0,a0
 441              	.LVL42:
 442              	.LBB132:
 443              	.LBB133:
  97:../src/uart.c **** 	{
 444              		.loc 1 97 0
 445 001a 35E9     		bnez	a0,.L38
 446              	.LVL43:
 447              	.LBB134:
 448              	.LBB135:
  33:../src/uart.c **** }
 449              		.loc 1 33 0
 450 001c A167     		li	a5,32768
 451 001e 13070003 		li	a4,48
 452 0022 98CB     		sw	a4,16(a5)
 453              	.LVL44:
 454              	.L39:
 455              	.LBE135:
 456              	.LBE134:
 457              	.LBE133:
 458              	.LBE132:
 459              	.LBB139:
 460              	.LBB140:
 461 0024 9307E002 		li	a5,46
 462 0028 A164     		li	s1,32768
 463 002a 9CC8     		sw	a5,16(s1)
 464              	.LVL45:
 465              	.LBE140:
 466              	.LBE139:
 121:../src/uart.c **** 	print_dec(tmpint);
 122:../src/uart.c **** 	put_char('.');
 123:../src/uart.c **** 	flt = flt - tmpint;
 467              		.loc 1 123 0
 468 002c 2285     		mv	a0,s0
 469 002e 97000000 		call	__floatunsidf
 469      E7800000 
 470              	.LVL46:
 471 0036 2A86     		mv	a2,a0
 472 0038 AE86     		mv	a3,a1
 473 003a 4A85     		mv	a0,s2
 474 003c CE85     		mv	a1,s3
 475 003e 97000000 		call	__subdf3
 475      E7800000 
 476              	.LVL47:
 124:../src/uart.c **** 	tmpint = (int)(flt * 1000000);
 477              		.loc 1 124 0
 478 0046 B7070000 		lui	a5,%hi(.LC1)
 479 004a 03A60700 		lw	a2,%lo(.LC1)(a5)
 480 004e 83A64700 		lw	a3,%lo(.LC1+4)(a5)
 481 0052 97000000 		call	__muldf3
 481      E7800000 
 482              	.LVL48:
 483 005a 97000000 		call	__fixdfsi
 483      E7800000 
 484              	.LVL49:
 485              	.LBB141:
 486              	.LBB142:
  97:../src/uart.c **** 	{
 487              		.loc 1 97 0
 488 0062 19E9     		bnez	a0,.L40
 489              	.LVL50:
 490              	.LBE142:
 491              	.LBE141:
 125:../src/uart.c **** 	print_dec(tmpint);
 126:../src/uart.c **** }
 492              		.loc 1 126 0
 493 0064 F240     		lw	ra,28(sp)
 494              		.cfi_remember_state
 495              		.cfi_restore 1
 496 0066 6244     		lw	s0,24(sp)
 497              		.cfi_restore 8
 498              	.LVL51:
 499              	.LBB152:
 500              	.LBB149:
 501              	.LBB143:
 502              	.LBB144:
  33:../src/uart.c **** }
 503              		.loc 1 33 0
 504 0068 93070003 		li	a5,48
 505 006c 9CC8     		sw	a5,16(s1)
 506              	.LBE144:
 507              	.LBE143:
 508              	.LBE149:
 509              	.LBE152:
 510              		.loc 1 126 0
 511 006e 4249     		lw	s2,16(sp)
 512              		.cfi_restore 18
 513 0070 D244     		lw	s1,20(sp)
 514              		.cfi_restore 9
 515 0072 B249     		lw	s3,12(sp)
 516              		.cfi_restore 19
 517 0074 0561     		addi	sp,sp,32
 518              		.cfi_def_cfa_offset 0
 519 0076 8280     		jr	ra
 520              	.LVL52:
 521              	.L40:
 522              		.cfi_restore_state
 523 0078 6244     		lw	s0,24(sp)
 524              		.cfi_remember_state
 525              		.cfi_restore 8
 526              	.LVL53:
 527 007a F240     		lw	ra,28(sp)
 528              		.cfi_restore 1
 529 007c D244     		lw	s1,20(sp)
 530              		.cfi_restore 9
 531 007e 4249     		lw	s2,16(sp)
 532              		.cfi_restore 18
 533 0080 B249     		lw	s3,12(sp)
 534              		.cfi_restore 19
 535              	.LBB153:
 536              	.LBB150:
 537              	.LBB145:
 538              	.LBB146:
 539 0082 A945     		li	a1,10
 540              	.LBE146:
 541              	.LBE145:
 542              	.LBE150:
 543              	.LBE153:
 544 0084 0561     		addi	sp,sp,32
 545              		.cfi_def_cfa_offset 0
 546              	.LBB154:
 547              	.LBB151:
 548              	.LBB148:
 549              	.LBB147:
 550 0086 17030000 		tail	print_num.part.0
 550      67000300 
 551              	.LVL54:
 552              	.L38:
 553              		.cfi_restore_state
 554              	.LBE147:
 555              	.LBE148:
 556              	.LBE151:
 557              	.LBE154:
 558              	.LBB155:
 559              	.LBB138:
 560              	.LBB136:
 561              	.LBB137:
 562 008e A945     		li	a1,10
 563 0090 97000000 		call	print_num.part.0
 563      E7800000 
 564              	.LVL55:
 565 0098 71B7     		j	.L39
 566              	.LBE137:
 567              	.LBE136:
 568              	.LBE138:
 569              	.LBE155:
 570              		.cfi_endproc
 571              	.LFE7:
 573              		.section	.text.printk,"ax",@progbits
 574              		.align	1
 575              		.globl	printk
 577              	printk:
 578              	.LFB8:
 127:../src/uart.c **** 
 128:../src/uart.c **** /********************************************************************
 129:../src/uart.c ****  ** 函数名称：printk
 130:../src/uart.c ****  ** 函数功能：自定义打印函数
 131:../src/uart.c ****  ** 输入参数：fmt：打印的字符串内容
 132:../src/uart.c ****  ** 输出参数：无
 133:../src/uart.c ****  ** 返回参数：无
 134:../src/uart.c ****  ********************************************************************/
 135:../src/uart.c **** void printk(char *fmt, ...)
 136:../src/uart.c **** {
 579              		.loc 1 136 0
 580              		.cfi_startproc
 581              	.LVL56:
 582 0000 5D71     		addi	sp,sp,-80
 583              		.cfi_def_cfa_offset 80
 584 0002 BAC0     		sw	a4,64(sp)
 585 0004 06D6     		sw	ra,44(sp)
 586 0006 22D4     		sw	s0,40(sp)
 587 0008 26D2     		sw	s1,36(sp)
 588 000a 4AD0     		sw	s2,32(sp)
 589 000c 4ECE     		sw	s3,28(sp)
 590 000e 52CC     		sw	s4,24(sp)
 591 0010 56CA     		sw	s5,20(sp)
 592 0012 5AC8     		sw	s6,16(sp)
 593              		.cfi_offset 1, -36
 594              		.cfi_offset 8, -40
 595              		.cfi_offset 9, -44
 596              		.cfi_offset 18, -48
 597              		.cfi_offset 19, -52
 598              		.cfi_offset 20, -56
 599              		.cfi_offset 21, -60
 600              		.cfi_offset 22, -64
 601              		.loc 1 136 0
 602 0014 2EDA     		sw	a1,52(sp)
 603 0016 32DC     		sw	a2,56(sp)
 604 0018 36DE     		sw	a3,60(sp)
 605 001a BEC2     		sw	a5,68(sp)
 606 001c C2C4     		sw	a6,72(sp)
 607 001e C6C6     		sw	a7,76(sp)
 137:../src/uart.c **** 	char *pfmt = NULL;
 138:../src/uart.c **** 	va_list vp;
 139:../src/uart.c **** 
 140:../src/uart.c **** 	va_start(vp, fmt);
 141:../src/uart.c **** 	pfmt = fmt;
 142:../src/uart.c **** 
 143:../src/uart.c **** 	while(*pfmt)
 608              		.loc 1 143 0
 609 0020 83070500 		lb	a5,0(a0)
 140:../src/uart.c **** 	pfmt = fmt;
 610              		.loc 1 140 0
 611 0024 5818     		addi	a4,sp,52
 612 0026 3AC6     		sw	a4,12(sp)
 613              	.LVL57:
 614              		.loc 1 143 0
 615 0028 A1C7     		beqz	a5,.L44
 144:../src/uart.c **** 	{
 145:../src/uart.c **** 		switch(*pfmt)
 146:../src/uart.c **** 		{
 147:../src/uart.c **** 			case '%':
 148:../src/uart.c **** 			{
 149:../src/uart.c **** 				switch(*(pfmt + 1))
 616              		.loc 1 149 0
 617 002a B70A0000 		lui	s5,%hi(.L52)
 618 002e AA84     		mv	s1,a0
 145:../src/uart.c **** 		{
 619              		.loc 1 145 0
 620 0030 2949     		li	s2,10
 621              	.LBB194:
 622              	.LBB195:
 623              	.LBB196:
 624              	.LBB197:
  33:../src/uart.c **** }
 625              		.loc 1 33 0
 626 0032 A169     		li	s3,32768
 627 0034 354B     		li	s6,13
 628              	.LBE197:
 629              	.LBE196:
 630              	.LBE195:
 631              	.LBE194:
 145:../src/uart.c **** 		{
 632              		.loc 1 145 0
 633 0036 130A5002 		li	s4,37
 634              		.loc 1 149 0
 635 003a 938A0A00 		addi	s5,s5,%lo(.L52)
 636 003e 19A8     		j	.L67
 637              	.LVL58:
 638              	.L79:
 145:../src/uart.c **** 		{
 639              		.loc 1 145 0
 640 0040 63824705 		beq	a5,s4,.L48
 641              	.LVL59:
 642              	.LBB201:
 643              	.LBB202:
  33:../src/uart.c **** }
 644              		.loc 1 33 0
 645 0044 2287     		mv	a4,s0
 646 0046 23A8F900 		sw	a5,16(s3)
 647 004a 2684     		mv	s0,s1
 648 004c BA84     		mv	s1,a4
 649              	.LVL60:
 650              	.L59:
 651              	.LBE202:
 652              	.LBE201:
 143:../src/uart.c **** 	{
 653              		.loc 1 143 0
 654 004e 83071400 		lb	a5,1(s0)
 655 0052 99CF     		beqz	a5,.L44
 656              	.LVL61:
 657              	.L67:
 658 0054 13841400 		addi	s0,s1,1
 145:../src/uart.c **** 		{
 659              		.loc 1 145 0
 660 0058 E39427FF 		bne	a5,s2,.L79
 661              	.LVL62:
 662              	.LBB203:
 663              	.LBB200:
 664              	.LBB199:
 665              	.LBB198:
  33:../src/uart.c **** }
 666              		.loc 1 33 0
 667 005c 23A86901 		sw	s6,16(s3)
 668              	.LVL63:
 669              	.LBE198:
 670              	.LBE199:
 671 0060 A287     		mv	a5,s0
 672 0062 23A82901 		sw	s2,16(s3)
 673 0066 2684     		mv	s0,s1
 674 0068 BE84     		mv	s1,a5
 675              	.LVL64:
 676              	.LBE200:
 677              	.LBE203:
 143:../src/uart.c **** 	{
 678              		.loc 1 143 0
 679 006a 83071400 		lb	a5,1(s0)
 680 006e FDF3     		bnez	a5,.L67
 681              	.LVL65:
 682              	.L44:
 150:../src/uart.c **** 				{
 151:../src/uart.c **** 					case 'c':
 152:../src/uart.c **** 						put_char(va_arg(vp, int));
 153:../src/uart.c **** 						pfmt++;
 154:../src/uart.c **** 						break;
 155:../src/uart.c **** 					case 'd':
 156:../src/uart.c **** 					case 'D':
 157:../src/uart.c **** 					case 'i':
 158:../src/uart.c **** 						print_dec(va_arg(vp, int));
 159:../src/uart.c **** 						pfmt++;
 160:../src/uart.c **** 						break;
 161:../src/uart.c **** 
 162:../src/uart.c **** 					case 'f':
 163:../src/uart.c **** 						print_flt(va_arg(vp, double));
 164:../src/uart.c **** 						pfmt++;
 165:../src/uart.c **** 						break;
 166:../src/uart.c **** 
 167:../src/uart.c **** 					case 's':
 168:../src/uart.c **** 					case 'S':
 169:../src/uart.c **** 						print_str(va_arg(vp, char*));
 170:../src/uart.c **** 						pfmt++;
 171:../src/uart.c **** 						break;
 172:../src/uart.c **** 
 173:../src/uart.c **** 					case 'x':
 174:../src/uart.c **** 					case 'X':
 175:../src/uart.c **** 						print_hex2(va_arg(vp, int));
 176:../src/uart.c **** 						pfmt++;
 177:../src/uart.c **** 						break;
 178:../src/uart.c **** 					case '%':
 179:../src/uart.c **** 						put_char('%');
 180:../src/uart.c **** 						break;
 181:../src/uart.c **** 
 182:../src/uart.c **** 					default:
 183:../src/uart.c **** 						put_char(*pfmt);
 184:../src/uart.c **** 						break;
 185:../src/uart.c **** 				}
 186:../src/uart.c **** 				break;
 187:../src/uart.c **** 			}
 188:../src/uart.c **** 			case '\n':
 189:../src/uart.c **** 				put_char('\n');
 190:../src/uart.c **** 				break;
 191:../src/uart.c **** 			case '\t':
 192:../src/uart.c **** 				put_char('\t');
 193:../src/uart.c **** 				break;
 194:../src/uart.c **** 			default:
 195:../src/uart.c **** 				put_char(*pfmt);
 196:../src/uart.c **** 				break;
 197:../src/uart.c **** 		}
 198:../src/uart.c **** 		pfmt++;
 199:../src/uart.c **** 	}
 200:../src/uart.c **** 	va_end(vp);
 201:../src/uart.c **** }
 683              		.loc 1 201 0
 684 0070 B250     		lw	ra,44(sp)
 685              		.cfi_remember_state
 686              		.cfi_restore 1
 687 0072 2254     		lw	s0,40(sp)
 688              		.cfi_restore 8
 689 0074 9254     		lw	s1,36(sp)
 690              		.cfi_restore 9
 691 0076 0259     		lw	s2,32(sp)
 692              		.cfi_restore 18
 693 0078 F249     		lw	s3,28(sp)
 694              		.cfi_restore 19
 695 007a 624A     		lw	s4,24(sp)
 696              		.cfi_restore 20
 697 007c D24A     		lw	s5,20(sp)
 698              		.cfi_restore 21
 699 007e 424B     		lw	s6,16(sp)
 700              		.cfi_restore 22
 701 0080 6161     		addi	sp,sp,80
 702              		.cfi_def_cfa_offset 0
 703 0082 8280     		jr	ra
 704              	.LVL66:
 705              	.L48:
 706              		.cfi_restore_state
 149:../src/uart.c **** 				{
 707              		.loc 1 149 0
 708 0084 83C71400 		lbu	a5,1(s1)
 709 0088 13073005 		li	a4,83
 710 008c 9387B7FD 		addi	a5,a5,-37
 711 0090 93F7F70F 		andi	a5,a5,0xff
 712 0094 6366F700 		bgtu	a5,a4,.L50
 713 0098 8A07     		slli	a5,a5,2
 714 009a D697     		add	a5,a5,s5
 715 009c 9C43     		lw	a5,0(a5)
 716 009e 8287     		jr	a5
 717              		.section	.rodata.printk,"a",@progbits
 718              		.align	2
 719              		.align	2
 720              	.L52:
 721 0000 00000000 		.word	.L50
 722 0004 00000000 		.word	.L50
 723 0008 00000000 		.word	.L50
 724 000c 00000000 		.word	.L50
 725 0010 00000000 		.word	.L50
 726 0014 00000000 		.word	.L50
 727 0018 00000000 		.word	.L50
 728 001c 00000000 		.word	.L50
 729 0020 00000000 		.word	.L50
 730 0024 00000000 		.word	.L50
 731 0028 00000000 		.word	.L50
 732 002c 00000000 		.word	.L50
 733 0030 00000000 		.word	.L50
 734 0034 00000000 		.word	.L50
 735 0038 00000000 		.word	.L50
 736 003c 00000000 		.word	.L50
 737 0040 00000000 		.word	.L50
 738 0044 00000000 		.word	.L50
 739 0048 00000000 		.word	.L50
 740 004c 00000000 		.word	.L50
 741 0050 00000000 		.word	.L50
 742 0054 00000000 		.word	.L50
 743 0058 00000000 		.word	.L50
 744 005c 00000000 		.word	.L50
 745 0060 00000000 		.word	.L50
 746 0064 00000000 		.word	.L50
 747 0068 00000000 		.word	.L50
 748 006c 00000000 		.word	.L50
 749 0070 00000000 		.word	.L50
 750 0074 00000000 		.word	.L50
 751 0078 00000000 		.word	.L50
 752 007c 00000000 		.word	.L53
 753 0080 00000000 		.word	.L50
 754 0084 00000000 		.word	.L50
 755 0088 00000000 		.word	.L50
 756 008c 00000000 		.word	.L50
 757 0090 00000000 		.word	.L50
 758 0094 00000000 		.word	.L50
 759 0098 00000000 		.word	.L50
 760 009c 00000000 		.word	.L50
 761 00a0 00000000 		.word	.L50
 762 00a4 00000000 		.word	.L50
 763 00a8 00000000 		.word	.L50
 764 00ac 00000000 		.word	.L50
 765 00b0 00000000 		.word	.L50
 766 00b4 00000000 		.word	.L50
 767 00b8 00000000 		.word	.L54
 768 00bc 00000000 		.word	.L50
 769 00c0 00000000 		.word	.L50
 770 00c4 00000000 		.word	.L50
 771 00c8 00000000 		.word	.L50
 772 00cc 00000000 		.word	.L55
 773 00d0 00000000 		.word	.L50
 774 00d4 00000000 		.word	.L50
 775 00d8 00000000 		.word	.L50
 776 00dc 00000000 		.word	.L50
 777 00e0 00000000 		.word	.L50
 778 00e4 00000000 		.word	.L50
 779 00e8 00000000 		.word	.L50
 780 00ec 00000000 		.word	.L50
 781 00f0 00000000 		.word	.L50
 782 00f4 00000000 		.word	.L50
 783 00f8 00000000 		.word	.L56
 784 00fc 00000000 		.word	.L53
 785 0100 00000000 		.word	.L50
 786 0104 00000000 		.word	.L57
 787 0108 00000000 		.word	.L50
 788 010c 00000000 		.word	.L50
 789 0110 00000000 		.word	.L53
 790 0114 00000000 		.word	.L50
 791 0118 00000000 		.word	.L50
 792 011c 00000000 		.word	.L50
 793 0120 00000000 		.word	.L50
 794 0124 00000000 		.word	.L50
 795 0128 00000000 		.word	.L50
 796 012c 00000000 		.word	.L50
 797 0130 00000000 		.word	.L50
 798 0134 00000000 		.word	.L50
 799 0138 00000000 		.word	.L54
 800 013c 00000000 		.word	.L50
 801 0140 00000000 		.word	.L50
 802 0144 00000000 		.word	.L50
 803 0148 00000000 		.word	.L50
 804 014c 00000000 		.word	.L55
 805              		.section	.text.printk
 806              	.L50:
 807              	.LVL67:
 808              	.LBB204:
 809              	.LBB205:
  33:../src/uart.c **** }
 810              		.loc 1 33 0
 811 00a0 A287     		mv	a5,s0
 812 00a2 23A84901 		sw	s4,16(s3)
 813 00a6 2684     		mv	s0,s1
 814 00a8 BE84     		mv	s1,a5
 815              	.LVL68:
 816 00aa 55B7     		j	.L59
 817              	.LVL69:
 818              	.L56:
 819              	.LBE205:
 820              	.LBE204:
 152:../src/uart.c **** 						pfmt++;
 821              		.loc 1 152 0
 822 00ac B247     		lw	a5,12(sp)
 823 00ae 03870700 		lb	a4,0(a5)
 824              	.LVL70:
 825 00b2 9107     		addi	a5,a5,4
 826 00b4 3EC6     		sw	a5,12(sp)
 827              	.LBB206:
 828              	.LBB207:
  31:../src/uart.c **** 		put_char('\r');
 829              		.loc 1 31 0
 830 00b6 63062709 		beq	a4,s2,.L80
 831              	.L58:
  33:../src/uart.c **** }
 832              		.loc 1 33 0
 833 00ba 23A8E900 		sw	a4,16(s3)
 834              	.LVL71:
 835 00be 8904     		addi	s1,s1,2
 836              	.LVL72:
 837              	.LBE207:
 838              	.LBE206:
 154:../src/uart.c **** 					case 'd':
 839              		.loc 1 154 0
 840 00c0 79B7     		j	.L59
 841              	.LVL73:
 842              	.L55:
 175:../src/uart.c **** 						pfmt++;
 843              		.loc 1 175 0
 844 00c2 B247     		lw	a5,12(sp)
 845 00c4 8843     		lw	a0,0(a5)
 846              	.LVL74:
 847 00c6 9107     		addi	a5,a5,4
 848 00c8 3EC6     		sw	a5,12(sp)
 849              	.LBB211:
 850              	.LBB212:
  78:../src/uart.c **** 	{
 851              		.loc 1 78 0
 852 00ca 2DE5     		bnez	a0,.L65
 853              	.LVL75:
 854              	.L78:
 855              	.LBB213:
 856              	.LBB214:
  33:../src/uart.c **** }
 857              		.loc 1 33 0
 858 00cc 93070003 		li	a5,48
 859 00d0 23A8F900 		sw	a5,16(s3)
 860              	.LVL76:
 861              	.L66:
 862 00d4 8904     		addi	s1,s1,2
 863              	.LVL77:
 864              	.LBE214:
 865              	.LBE213:
 866              	.LBE212:
 867              	.LBE211:
 177:../src/uart.c **** 					case '%':
 868              		.loc 1 177 0
 869 00d6 A5BF     		j	.L59
 870              	.LVL78:
 871              	.L53:
 158:../src/uart.c **** 						pfmt++;
 872              		.loc 1 158 0
 873 00d8 B247     		lw	a5,12(sp)
 874 00da 8843     		lw	a0,0(a5)
 875              	.LVL79:
 876 00dc 9107     		addi	a5,a5,4
 877 00de 3EC6     		sw	a5,12(sp)
 878              	.LBB218:
 879              	.LBB219:
  97:../src/uart.c **** 	{
 880              		.loc 1 97 0
 881 00e0 75D5     		beqz	a0,.L78
 882              	.LVL80:
 883              	.LBB220:
 884              	.LBB221:
 885 00e2 A945     		li	a1,10
 886 00e4 97000000 		call	print_num.part.0
 886      E7800000 
 887              	.LVL81:
 888 00ec 8904     		addi	s1,s1,2
 889              	.LVL82:
 890 00ee 85B7     		j	.L59
 891              	.LVL83:
 892              	.L54:
 893              	.LBE221:
 894              	.LBE220:
 895              	.LBE219:
 896              	.LBE218:
 169:../src/uart.c **** 						pfmt++;
 897              		.loc 1 169 0
 898 00f0 B247     		lw	a5,12(sp)
 899 00f2 9843     		lw	a4,0(a5)
 900              	.LVL84:
 901 00f4 9107     		addi	a5,a5,4
 902 00f6 3EC6     		sw	a5,12(sp)
 903              	.LBB222:
 904              	.LBB223:
  45:../src/uart.c **** 		put_char(*(p++));
 905              		.loc 1 45 0
 906 00f8 83070700 		lb	a5,0(a4)
 907 00fc E1DF     		beqz	a5,.L66
  46:../src/uart.c **** }
 908              		.loc 1 46 0
 909 00fe 0507     		addi	a4,a4,1
 910              	.LVL85:
 911              	.LBB224:
 912              	.LBB225:
  31:../src/uart.c **** 		put_char('\r');
 913              		.loc 1 31 0
 914 0100 638A2701 		beq	a5,s2,.L81
 915              	.L63:
  33:../src/uart.c **** }
 916              		.loc 1 33 0
 917 0104 23A8F900 		sw	a5,16(s3)
 918              	.LBE225:
 919              	.LBE224:
  45:../src/uart.c **** 		put_char(*(p++));
 920              		.loc 1 45 0
 921 0108 83070700 		lb	a5,0(a4)
 922              	.LVL86:
 923 010c E1D7     		beqz	a5,.L66
  46:../src/uart.c **** }
 924              		.loc 1 46 0
 925 010e 0507     		addi	a4,a4,1
 926              	.LVL87:
 927              	.LBB229:
 928              	.LBB228:
  31:../src/uart.c **** 		put_char('\r');
 929              		.loc 1 31 0
 930 0110 E39A27FF 		bne	a5,s2,.L63
 931              	.L81:
 932              	.LVL88:
 933              	.LBB226:
 934              	.LBB227:
  33:../src/uart.c **** }
 935              		.loc 1 33 0
 936 0114 23A86901 		sw	s6,16(s3)
 937 0118 F5B7     		j	.L63
 938              	.LVL89:
 939              	.L57:
 940              	.LBE227:
 941              	.LBE226:
 942              	.LBE228:
 943              	.LBE229:
 944              	.LBE223:
 945              	.LBE222:
 163:../src/uart.c **** 						pfmt++;
 946              		.loc 1 163 0
 947 011a B247     		lw	a5,12(sp)
 948 011c 8904     		addi	s1,s1,2
 949              	.LVL90:
 950 011e 9D07     		addi	a5,a5,7
 951 0120 E19B     		andi	a5,a5,-8
 952 0122 8843     		lw	a0,0(a5)
 953 0124 CC43     		lw	a1,4(a5)
 954 0126 A107     		addi	a5,a5,8
 955 0128 3EC6     		sw	a5,12(sp)
 956 012a 97000000 		call	print_flt
 956      E7800000 
 957              	.LVL91:
 165:../src/uart.c **** 
 958              		.loc 1 165 0
 959 0132 31BF     		j	.L59
 960              	.LVL92:
 961              	.L65:
 962              	.LBB230:
 963              	.LBB217:
 964              	.LBB215:
 965              	.LBB216:
 966 0134 C145     		li	a1,16
 967 0136 97000000 		call	print_num.part.0
 967      E7800000 
 968              	.LVL93:
 969 013e 8904     		addi	s1,s1,2
 970              	.LVL94:
 971 0140 39B7     		j	.L59
 972              	.LVL95:
 973              	.L80:
 974              	.LBE216:
 975              	.LBE215:
 976              	.LBE217:
 977              	.LBE230:
 978              	.LBB231:
 979              	.LBB210:
 980              	.LBB208:
 981              	.LBB209:
  33:../src/uart.c **** }
 982              		.loc 1 33 0
 983 0142 23A86901 		sw	s6,16(s3)
 984 0146 95BF     		j	.L58
 985              	.LBE209:
 986              	.LBE208:
 987              	.LBE210:
 988              	.LBE231:
 989              		.cfi_endproc
 990              	.LFE8:
 992              		.section	.text.getchar_prompt,"ax",@progbits
 993              		.align	1
 994              		.globl	getchar_prompt
 996              	getchar_prompt:
 997              	.LFB9:
 202:../src/uart.c **** 
 203:../src/uart.c **** /********************************************************************
 204:../src/uart.c ****  ** 函数名称：getchar_prompt
 205:../src/uart.c ****  ** 函数功能：
 206:../src/uart.c ****  ** 输入参数：
 207:../src/uart.c ****  ** 输出参数：无
 208:../src/uart.c ****  ** 返回参数：无
 209:../src/uart.c ****  ********************************************************************/
 210:../src/uart.c **** char getchar_prompt(char *prompt)
 211:../src/uart.c **** {
 998              		.loc 1 211 0
 999              		.cfi_startproc
 1000              	.LVL96:
 212:../src/uart.c **** 	int32_t c = -1;
 213:../src/uart.c **** 
 214:../src/uart.c **** 	uint32_t cycles_begin, cycles_now, cycles;
 215:../src/uart.c **** 	__asm__ volatile ("rdcycle %0" : "=r"(cycles_begin));
 1001              		.loc 1 215 0
 1002              	 #APP
 1003              	# 215 "../src/uart.c" 1
 216              	
 1004              		rdcycle a1
 1005              	# 0 "" 2
 1006              	.LVL97:
 217:../src/uart.c **** 	if (prompt)
 1007              		.loc 1 217 0
 1008              	 #NO_APP
 1009 0004 15C5     		beqz	a0,.L83
 1010              	.LVL98:
 1011              	.LBB244:
 1012              	.LBB245:
  45:../src/uart.c **** 		put_char(*(p++));
 1013              		.loc 1 45 0
 1014 0006 83070500 		lb	a5,0(a0)
 1015 000a 9DC3     		beqz	a5,.L83
 1016 000c 2A87     		mv	a4,a0
 1017              	.LBB246:
 1018              	.LBB247:
  31:../src/uart.c **** 		put_char('\r');
 1019              		.loc 1 31 0
 1020 000e 2946     		li	a2,10
 1021              	.LBB248:
 1022              	.LBB249:
  33:../src/uart.c **** }
 1023              		.loc 1 33 0
 1024 0010 A166     		li	a3,32768
 1025 0012 3548     		li	a6,13
 1026 0014 29A0     		j	.L85
 1027              	.LVL99:
 1028              	.L84:
 1029              	.LBE249:
 1030              	.LBE248:
 1031 0016 9CCA     		sw	a5,16(a3)
 1032              	.LBE247:
 1033              	.LBE246:
  45:../src/uart.c **** 		put_char(*(p++));
 1034              		.loc 1 45 0
 1035 0018 83070700 		lb	a5,0(a4)
 1036              	.LVL100:
 1037 001c 91CB     		beqz	a5,.L83
 1038              	.L85:
  46:../src/uart.c **** }
 1039              		.loc 1 46 0
 1040 001e 0507     		addi	a4,a4,1
 1041              	.LVL101:
 1042              	.LBB253:
 1043              	.LBB252:
  31:../src/uart.c **** 		put_char('\r');
 1044              		.loc 1 31 0
 1045 0020 E39BC7FE 		bne	a5,a2,.L84
 1046              	.LVL102:
 1047              	.LBB251:
 1048              	.LBB250:
  33:../src/uart.c **** }
 1049              		.loc 1 33 0
 1050 0024 23A80601 		sw	a6,16(a3)
 1051              	.LBE250:
 1052              	.LBE251:
 1053 0028 9CCA     		sw	a5,16(a3)
 1054              	.LBE252:
 1055              	.LBE253:
  45:../src/uart.c **** 		put_char(*(p++));
 1056              		.loc 1 45 0
 1057 002a 83070700 		lb	a5,0(a4)
 1058              	.LVL103:
 1059 002e E5FB     		bnez	a5,.L85
 1060              	.LVL104:
 1061              	.L83:
 1062              	.LBE245:
 1063              	.LBE244:
 218:../src/uart.c **** 		print_str(prompt);
 219:../src/uart.c **** 
 220:../src/uart.c **** 	while (c == -1)
 221:../src/uart.c **** 	{
 222:../src/uart.c **** 		__asm__ volatile ("rdcycle %0" : "=r"(cycles_now));
 223:../src/uart.c **** 		cycles = cycles_now - cycles_begin;
 224:../src/uart.c **** 		if (cycles > 12000000)
 1064              		.loc 1 224 0
 1065 0030 B728B700 		li	a7,12001280
 1066 0034 938808B0 		addi	a7,a7,-1280
 1067              	.LBB254:
 1068              	.LBB255:
 1069              	.LBB256:
 1070              	.LBB257:
  31:../src/uart.c **** 		put_char('\r');
 1071              		.loc 1 31 0
 1072 0038 2948     		li	a6,10
 1073              	.LBB258:
 1074              	.LBB259:
  33:../src/uart.c **** }
 1075              		.loc 1 33 0
 1076 003a A166     		li	a3,32768
 1077 003c 354E     		li	t3,13
 1078              	.LBE259:
 1079              	.LBE258:
 1080              	.LBE257:
 1081              	.LBE256:
 1082              	.LBE255:
 1083              	.LBE254:
 220:../src/uart.c **** 	{
 1084              		.loc 1 220 0
 1085 003e 7D53     		li	t1,-1
 1086              	.LVL105:
 1087              	.L89:
 222:../src/uart.c **** 		cycles = cycles_now - cycles_begin;
 1088              		.loc 1 222 0
 1089              	 #APP
 1090              	# 222 "../src/uart.c" 1
 1091              		rdcycle a2
 1092              	# 0 "" 2
 1093              	.LVL106:
 223:../src/uart.c **** 		if (cycles > 12000000)
 1094              		.loc 1 223 0
 1095              	 #NO_APP
 1096 0044 B307B640 		sub	a5,a2,a1
 1097              	.LVL107:
 1098              		.loc 1 224 0
 1099 0048 63F7F802 		bleu	a5,a7,.L86
 225:../src/uart.c **** 		{
 226:../src/uart.c **** 			if (prompt)
 227:../src/uart.c **** 			{
 228:../src/uart.c **** 				print_str(prompt);
 229:../src/uart.c **** 			}
 230:../src/uart.c **** 			cycles_begin = cycles_now;
 1100              		.loc 1 230 0
 1101 004c B285     		mv	a1,a2
 1102              	.LVL108:
 226:../src/uart.c **** 			{
 1103              		.loc 1 226 0
 1104 004e 05C5     		beqz	a0,.L86
 1105              	.LVL109:
 1106              	.LBB267:
 1107              	.LBB266:
  45:../src/uart.c **** 		put_char(*(p++));
 1108              		.loc 1 45 0
 1109 0050 83070500 		lb	a5,0(a0)
 1110              	.LVL110:
 1111 0054 8DC3     		beqz	a5,.L86
 1112 0056 2A87     		mv	a4,a0
 1113 0058 29A0     		j	.L88
 1114              	.LVL111:
 1115              	.L87:
 1116              	.LBB264:
 1117              	.LBB262:
  33:../src/uart.c **** }
 1118              		.loc 1 33 0
 1119 005a 9CCA     		sw	a5,16(a3)
 1120              	.LBE262:
 1121              	.LBE264:
  45:../src/uart.c **** 		put_char(*(p++));
 1122              		.loc 1 45 0
 1123 005c 83070700 		lb	a5,0(a4)
 1124              	.LVL112:
 1125 0060 91CB     		beqz	a5,.L102
 1126              	.L88:
  46:../src/uart.c **** }
 1127              		.loc 1 46 0
 1128 0062 0507     		addi	a4,a4,1
 1129              	.LVL113:
 1130              	.LBB265:
 1131              	.LBB263:
  31:../src/uart.c **** 		put_char('\r');
 1132              		.loc 1 31 0
 1133 0064 E39B07FF 		bne	a5,a6,.L87
 1134              	.LVL114:
 1135              	.LBB261:
 1136              	.LBB260:
  33:../src/uart.c **** }
 1137              		.loc 1 33 0
 1138 0068 23A8C601 		sw	t3,16(a3)
 1139              	.LBE260:
 1140              	.LBE261:
 1141 006c 9CCA     		sw	a5,16(a3)
 1142              	.LBE263:
 1143              	.LBE265:
  45:../src/uart.c **** 		put_char(*(p++));
 1144              		.loc 1 45 0
 1145 006e 83070700 		lb	a5,0(a4)
 1146              	.LVL115:
 1147 0072 E5FB     		bnez	a5,.L88
 1148              	.LVL116:
 1149              	.L102:
 1150              	.LBE266:
 1151              	.LBE267:
 1152              		.loc 1 230 0
 1153 0074 B285     		mv	a1,a2
 1154              	.LVL117:
 1155              	.L86:
 231:../src/uart.c **** 		}
 232:../src/uart.c **** 		c = reg_uart_data;
 1156              		.loc 1 232 0
 1157 0076 9C4A     		lw	a5,16(a3)
 1158              	.LVL118:
 220:../src/uart.c **** 	{
 1159              		.loc 1 220 0
 1160 0078 E38467FC 		beq	a5,t1,.L89
 233:../src/uart.c **** 	}
 234:../src/uart.c **** 
 235:../src/uart.c **** 	return c;
 236:../src/uart.c **** }
 1161              		.loc 1 236 0
 1162 007c 13958701 		slli	a0,a5,24
 1163              	.LVL119:
 1164 0080 6185     		srai	a0,a0,24
 1165 0082 8280     		ret
 1166              		.cfi_endproc
 1167              	.LFE9:
 1169              		.section	.text.get_char,"ax",@progbits
 1170              		.align	1
 1171              		.globl	get_char
 1173              	get_char:
 1174              	.LFB10:
 237:../src/uart.c **** 
 238:../src/uart.c **** /********************************************************************
 239:../src/uart.c ****  ** 函数名称：get_char
 240:../src/uart.c ****  ** 函数功能：串口获取一个字符
 241:../src/uart.c ****  ** 输入参数：无
 242:../src/uart.c ****  ** 输出参数：无
 243:../src/uart.c ****  ** 返回参数：输出的字符
 244:../src/uart.c ****  ********************************************************************/
 245:../src/uart.c **** char get_char()
 246:../src/uart.c **** {
 1175              		.loc 1 246 0
 1176              		.cfi_startproc
 1177 0000 4111     		addi	sp,sp,-16
 1178              		.cfi_def_cfa_offset 16
 247:../src/uart.c **** //	return getchar_prompt(0);
 248:../src/uart.c **** 	put_char(getchar_prompt(0));
 1179              		.loc 1 248 0
 1180 0002 0145     		li	a0,0
 246:../src/uart.c **** //	return getchar_prompt(0);
 1181              		.loc 1 246 0
 1182 0004 06C6     		sw	ra,12(sp)
 1183              		.cfi_offset 1, -4
 1184              		.loc 1 248 0
 1185 0006 97000000 		call	getchar_prompt
 1185      E7800000 
 1186              	.LVL120:
 1187              	.LBB272:
 1188              	.LBB273:
  31:../src/uart.c **** 		put_char('\r');
 1189              		.loc 1 31 0
 1190 000e 2947     		li	a4,10
 1191              	.LBE273:
 1192              	.LBE272:
 1193              		.loc 1 248 0
 1194 0010 AA87     		mv	a5,a0
 1195              	.LVL121:
 1196              	.LBB282:
 1197              	.LBB278:
  31:../src/uart.c **** 		put_char('\r');
 1198              		.loc 1 31 0
 1199 0012 6307E500 		beq	a0,a4,.L106
 1200              	.LBE278:
 1201              	.LBE282:
 249:../src/uart.c **** }
 1202              		.loc 1 249 0
 1203 0016 B240     		lw	ra,12(sp)
 1204              		.cfi_remember_state
 1205              		.cfi_restore 1
 1206              	.LBB283:
 1207              	.LBB279:
  33:../src/uart.c **** }
 1208              		.loc 1 33 0
 1209 0018 2167     		li	a4,32768
 1210 001a 1CCB     		sw	a5,16(a4)
 1211              	.LVL122:
 1212              	.LBE279:
 1213              	.LBE283:
 1214              		.loc 1 249 0
 1215 001c 4101     		addi	sp,sp,16
 1216              		.cfi_def_cfa_offset 0
 1217 001e 8280     		jr	ra
 1218              	.LVL123:
 1219              	.L106:
 1220              		.cfi_restore_state
 1221              	.LBB284:
 1222              	.LBB280:
 1223              	.LBB274:
 1224              	.LBB275:
  33:../src/uart.c **** }
 1225              		.loc 1 33 0
 1226 0020 2167     		li	a4,32768
 1227              	.LBE275:
 1228              	.LBE274:
 1229              	.LBE280:
 1230              	.LBE284:
 1231              		.loc 1 249 0
 1232 0022 B240     		lw	ra,12(sp)
 1233              		.cfi_restore 1
 1234              	.LBB285:
 1235              	.LBB281:
 1236              	.LBB277:
 1237              	.LBB276:
  33:../src/uart.c **** }
 1238              		.loc 1 33 0
 1239 0024 B546     		li	a3,13
 1240 0026 14CB     		sw	a3,16(a4)
 1241              	.LBE276:
 1242              	.LBE277:
 1243 0028 2167     		li	a4,32768
 1244 002a 1CCB     		sw	a5,16(a4)
 1245              	.LVL124:
 1246              	.LBE281:
 1247              	.LBE285:
 1248              		.loc 1 249 0
 1249 002c 4101     		addi	sp,sp,16
 1250              		.cfi_def_cfa_offset 0
 1251 002e 8280     		jr	ra
 1252              		.cfi_endproc
 1253              	.LFE10:
 1255              		.section	.rodata.print_flt.cst8,"aM",@progbits,8
 1256              		.align	3
 1257              	.LC1:
 1258 0000 00000000 		.word	0
 1259 0004 80842E41 		.word	1093567616
 1260              		.section	.rodata.print_num.part.0.str1.4,"aMS",@progbits,1
 1261              		.align	2
 1262              	.LC0:
 1263 0000 30313233 		.string	"0123456789abcdef"
 1263      34353637 
 1263      38396162 
 1263      63646566 
 1263      00
 1264              		.text
 1265              	.Letext0:
 1266              		.file 2 "d:\\tools\\hummingbird\\hbird-eclipse_2018_09\\gnu mcu eclipse\\risc-v embedded gcc\\7.2.
 1267              		.file 3 "d:\\tools\\hummingbird\\hbird-eclipse_2018_09\\gnu mcu eclipse\\risc-v embedded gcc\\7.2.
 1268              		.file 4 "d:\\tools\\hummingbird\\hbird-eclipse_2018_09\\gnu mcu eclipse\\risc-v embedded gcc\\7.2.
 1269              		.file 5 "d:\\tools\\hummingbird\\hbird-eclipse_2018_09\\gnu mcu eclipse\\risc-v embedded gcc\\7.2.
 1270              		.file 6 "d:\\tools\\hummingbird\\hbird-eclipse_2018_09\\gnu mcu eclipse\\risc-v embedded gcc\\7.2.
 1271              		.file 7 "d:\\tools\\hummingbird\\hbird-eclipse_2018_09\\gnu mcu eclipse\\risc-v embedded gcc\\7.2.
 1272              		.file 8 "d:\\tools\\hummingbird\\hbird-eclipse_2018_09\\gnu mcu eclipse\\risc-v embedded gcc\\7.2.
 1273              		.file 9 "d:\\tools\\hummingbird\\hbird-eclipse_2018_09\\gnu mcu eclipse\\risc-v embedded gcc\\7.2.