
SparrowRV_APP.elf:     file format elf32-littleriscv
SparrowRV_APP.elf
architecture: riscv:rv32, flags 0x00000112:
EXEC_P, HAS_SYMS, D_PAGED
start address 0x00000000

Program Header:
    LOAD off    0x00001000 vaddr 0x00000000 paddr 0x00000000 align 2**12
         filesz 0x00002e3c memsz 0x00002e3c flags r-x
    LOAD off    0x00004000 vaddr 0x20000000 paddr 0x00002e3c align 2**12
         filesz 0x00000610 memsz 0x00000610 flags r--
    LOAD off    0x00004610 vaddr 0x20000610 paddr 0x20000610 align 2**12
         filesz 0x00000000 memsz 0x00000018 flags rw-
    LOAD off    0x00005000 vaddr 0x20003000 paddr 0x20000628 align 2**12
         filesz 0x00000000 memsz 0x00001000 flags rw-

Sections:
Idx Name           Size      VMA       LMA       File off  Algn  Flags
  0 .init          000000b0  00000000  00000000  00001000  2**0  CONTENTS, ALLOC, LOAD, READONLY, CODE
  1 .text          00002d8c  000000b0  000000b0  000010b0  2**2  CONTENTS, ALLOC, LOAD, READONLY, CODE
  2 .lalign        00000000  00002e3c  00002e3c  00004610  2**0  CONTENTS
  3 .dalign        00000000  20000000  20000000  00004610  2**0  CONTENTS
  4 .data          00000610  20000000  00002e3c  00004000  2**3  CONTENTS, ALLOC, LOAD, READONLY, DATA
  5 .bss           00000018  20000610  20000610  00004610  2**2  ALLOC
  6 .stack         00001000  20003000  20000628  00005000  2**0  ALLOC
  7 .debug_info    00002fe1  00000000  00000000  00004610  2**0  CONTENTS, READONLY, DEBUGGING
  8 .debug_abbrev  00000db0  00000000  00000000  000075f1  2**0  CONTENTS, READONLY, DEBUGGING
  9 .debug_loc     00002069  00000000  00000000  000083a1  2**0  CONTENTS, READONLY, DEBUGGING
 10 .debug_aranges 00000348  00000000  00000000  0000a410  2**3  CONTENTS, READONLY, DEBUGGING
 11 .debug_ranges  000003d8  00000000  00000000  0000a758  2**3  CONTENTS, READONLY, DEBUGGING
 12 .debug_line    00003d27  00000000  00000000  0000ab30  2**0  CONTENTS, READONLY, DEBUGGING
 13 .debug_str     00000893  00000000  00000000  0000e857  2**0  CONTENTS, READONLY, DEBUGGING
 14 .comment       00000033  00000000  00000000  0000f0ea  2**0  CONTENTS, READONLY
 15 .debug_frame   00000754  00000000  00000000  0000f120  2**2  CONTENTS, READONLY, DEBUGGING
SYMBOL TABLE:
00000000 l    d  .init	00000000 .init
000000b0 l    d  .text	00000000 .text
00002e3c l    d  .lalign	00000000 .lalign
20000000 l    d  .dalign	00000000 .dalign
20000000 l    d  .data	00000000 .data
20000610 l    d  .bss	00000000 .bss
20003000 l    d  .stack	00000000 .stack
00000000 l    d  .debug_info	00000000 .debug_info
00000000 l    d  .debug_abbrev	00000000 .debug_abbrev
00000000 l    d  .debug_loc	00000000 .debug_loc
00000000 l    d  .debug_aranges	00000000 .debug_aranges
00000000 l    d  .debug_ranges	00000000 .debug_ranges
00000000 l    d  .debug_line	00000000 .debug_line
00000000 l    d  .debug_str	00000000 .debug_str
00000000 l    d  .comment	00000000 .comment
00000000 l    d  .debug_frame	00000000 .debug_frame
00000000 l    df *ABS*	00000000 ./lib/startup/startup.o
0000006c l       .init	00000000 loop
00000000 l    df *ABS*	00000000 init.c
00000000 l    df *ABS*	00000000 dds.c
00000000 l    df *ABS*	00000000 dso.c
00000000 l    df *ABS*	00000000 fpioa.c
00000000 l    df *ABS*	00000000 la.c
00000000 l    df *ABS*	00000000 uart.c
00000000 l    df *ABS*	00000000 printf.c
00000384 l     F .text	00000004 _out_null
00000388 l     F .text	00000368 _ntoa_format
000006f0 l     F .text	000000e4 _ntoa_long
000007d4 l     F .text	00000168 _ntoa_long_long
0000093c l     F .text	00000994 _vsnprintf
00001330 l     F .text	00000020 _out_char
00000000 l    df *ABS*	00000000 main.c
00000000 l    df *ABS*	00000000 trap_handler.c
00000000 l    df *ABS*	00000000 libgcc2.c
00000000 l    df *ABS*	00000000 libgcc2.c
00000000 l    df *ABS*	00000000 muldf3.c
00000000 l    df *ABS*	00000000 fixunssfsi.c
00000000 l    df *ABS*	00000000 floatunsisf.c
00000000 l    df *ABS*	00000000 extendsfdf2.c
00000000 l    df *ABS*	00000000 truncdfsf2.c
00000000 l    df *ABS*	00000000 libgcc2.c
00000000 l    df *ABS*	00000000 libgcc2.c
00001310 g     F .text	00000020 _putchar
20000e10 g       .data	00000000 __global_pointer$
00008000 g       *ABS*	00000000 _app_prog_size
000002b0 g     F .text	0000000c la_set_prenum
00000118  w      .text	00000000 HardFault_Handler
00001840 g     F .text	00000004 SysTick_Handler
00000128  w      .text	00000000 PLIC1_FPIOA_ELI0_Handler
00000280 g     F .text	0000000c la_set_trgen
00001000 g       *ABS*	00000000 __stack_size
000002f8 g     F .text	0000000c la_get_prenum
0000012c  w      .text	00000000 PLIC2_FPIOA_ELI1_Handler
00000124  w      .text	00000000 PLIC0_Handler
0000031c g     F .text	0000000c la_set_interval
00000000 g       *ABS*	00000000 _app_base_addr
00000210 g     F .text	0000000c dso_get_vpp
20000610 g     O .bss	00000004 system_sram_size
00000180 g     F .text	0000000c dds_wavetype
00001398 g     F .text	00000068 get_cmd
0000021c g     F .text	0000000c dso_get_max
00004000 g       *ABS*	00000000 _cpu_sram_size
00000234 g     F .text	0000000c dso_set_fir_en
0000015c g     F .text	0000000c dds_set_freq
00001400 g     F .text	00000038 clear_cmd
00002ab4 g     F .text	00000100 .hidden __extendsfdf2
000002ec g     F .text	0000000c la_get_freqsel
00001d18 g     F .text	000004b4 .hidden __umoddi3
00001848 g     F .text	000004d0 .hidden __udivdi3
0000013c  w      .text	00000000 PLIC6_UART0_RX_Handler
00000304 g     F .text	0000000c la_set_uart_en
000012d0 g     F .text	00000040 init_uart0_printf
00000228 g     F .text	0000000c dso_get_min
20000614 g     O .bss	00000004 n25q_spi_sel
000001ec g     F .text	0000000c dso_set_v_scale
000000b0 g     F .text	00000068 sparrowrv_system_init
0000018c g     F .text	00000030 dds_get_state
00000240 g     F .text	0000000c dso_set_trig_line
00000000 g       *ABS*	00000000 _use_sd_iap
00000204 g     F .text	0000000c dso_get_freq
00000150 g     F .text	0000000c dds_set_amp
000002a4 g     F .text	0000000c la_set_freqsel
0000024c g     F .text	00000014 fpioa_perips_out_set
20000000 g       *ABS*	00000000 _sram_base_addr
000002bc g     F .text	0000000c la_get_data
00002da8 g     F .text	00000094 .hidden __clzsi2
20004000 g       .stack	00000000 _sp
20000618 g     O .bss	00000004 system_cpu_freqM
00000000 g     F .init	00000000 _start
00000274 g     F .text	0000000c la_set_data
00000148  w      .text	00000000 PLIC9_TIMER0_OF_Handler
00000140  w      .text	00000000 PLIC7_UART1_TX_Handler
2000061c g     O .bss	00000004 system_vendorid
00001438 g     F .text	0000005c get_param
000001e0 g     F .text	0000000c dso_set_trig_edge
0000035c g     F .text	00000018 uart_recv_date
000002e0 g     F .text	0000000c la_get_modesel
0000034c g     F .text	00000010 uart_band_ctrl
00000070 g       .init	00000000 trap_vector_tab
00008000 g       *ABS*	00000000 _cpu_iram_size
000021cc g     F .text	00000760 .hidden __muldf3
20000610 g       .bss	00000000 __bss_start
00001494 g     F .text	000003ac main
00000174 g     F .text	0000000c dds_set_phase
00002bb4 g     F .text	000001f4 .hidden __truncdfsf2
20000620 g     O .bss	00000004 system_cpu_freq
000001c8 g     F .text	0000000c dso_set_deci_rate
2000050c g     O .data	00000100 .hidden __clz_tab
00000144  w      .text	00000000 PLIC8_UART1_RX_Handler
00001000 g       *ABS*	00000000 _cpu_stack_size
00000260 g     F .text	00000014 fpioa_perips_in_set
00000328 g     F .text	00000024 uart_enable_ctrl
00000130  w      .text	00000000 PLIC3_FPIOA_ELI2_Handler
20000000 g       .dalign	00000000 _data
00000374 g     F .text	00000010 uart_recv_flg
00000138  w      .text	00000000 PLIC5_UART0_TX_Handler
00001844 g     F .text	00000004 SW_Handler
000001f8 g     F .text	0000000c dso_set_fft_en
000001bc g     F .text	0000000c dso_set_trig_level
0000028c g     F .text	0000000c la_set_chnsel
00001350 g     F .text	00000048 printf_
20000610 g       .bss	00000000 _edata
00000168 g     F .text	0000000c dds_set_min
20000628 g       .bss	00000000 _end
00002e3c g       .lalign	00000000 _data_lma
00000000 g       *ABS*	00000000 _iap_prog_size
00002990 g     F .text	00000124 .hidden __floatunsisf
0000292c g     F .text	00000064 .hidden __fixunssfsi
0000014c  w      .text	00000000 PLIC10_SPI0_END_Handler
00000298 g     F .text	0000000c la_set_modesel
00000310 g     F .text	0000000c la_set_spi_en
20000624 g     O .bss	00000004 system_iram_size
000002c8 g     F .text	0000000c la_get_trgen
00000134  w      .text	00000000 PLIC4_FPIOA_ELI3_Handler
000001d4 g     F .text	0000000c dso_set_wave_run
000002d4 g     F .text	0000000c la_get_chnsel



Disassembly of section .init:

00000000 <_start>:
_start():
D:\pangoPRJ\RISC-V\rtl\SparrowRV\bsp\bsp_app\obj/../lib/startup/startup.S:10
   0:	00000013          	nop
D:\pangoPRJ\RISC-V\rtl\SparrowRV\bsp\bsp_app\obj/../lib/startup/startup.S:11
   4:	20001197          	auipc	gp,0x20001
   8:	e0c18193          	addi	gp,gp,-500 # 20000e10 <__global_pointer$>
D:\pangoPRJ\RISC-V\rtl\SparrowRV\bsp\bsp_app\obj/../lib/startup/startup.S:13
   c:	20004117          	auipc	sp,0x20004
  10:	ff410113          	addi	sp,sp,-12 # 20004000 <_sp>
D:\pangoPRJ\RISC-V\rtl\SparrowRV\bsp\bsp_app\obj/../lib/startup/startup.S:16
  14:	00003517          	auipc	a0,0x3
  18:	e2850513          	addi	a0,a0,-472 # 2e3c <_data_lma>
D:\pangoPRJ\RISC-V\rtl\SparrowRV\bsp\bsp_app\obj/../lib/startup/startup.S:17
  1c:	20000597          	auipc	a1,0x20000
  20:	fe458593          	addi	a1,a1,-28 # 20000000 <_sram_base_addr>
D:\pangoPRJ\RISC-V\rtl\SparrowRV\bsp\bsp_app\obj/../lib/startup/startup.S:18
  24:	20000617          	auipc	a2,0x20000
  28:	5ec60613          	addi	a2,a2,1516 # 20000610 <system_sram_size>
D:\pangoPRJ\RISC-V\rtl\SparrowRV\bsp\bsp_app\obj/../lib/startup/startup.S:19
  2c:	00c5fc63          	bgeu	a1,a2,44 <_start+0x44>
D:\pangoPRJ\RISC-V\rtl\SparrowRV\bsp\bsp_app\obj/../lib/startup/startup.S:21
  30:	00052283          	lw	t0,0(a0)
D:\pangoPRJ\RISC-V\rtl\SparrowRV\bsp\bsp_app\obj/../lib/startup/startup.S:22
  34:	0055a023          	sw	t0,0(a1)
D:\pangoPRJ\RISC-V\rtl\SparrowRV\bsp\bsp_app\obj/../lib/startup/startup.S:23
  38:	00450513          	addi	a0,a0,4
D:\pangoPRJ\RISC-V\rtl\SparrowRV\bsp\bsp_app\obj/../lib/startup/startup.S:24
  3c:	00458593          	addi	a1,a1,4
D:\pangoPRJ\RISC-V\rtl\SparrowRV\bsp\bsp_app\obj/../lib/startup/startup.S:25
  40:	fec5e8e3          	bltu	a1,a2,30 <_start+0x30>
D:\pangoPRJ\RISC-V\rtl\SparrowRV\bsp\bsp_app\obj/../lib/startup/startup.S:30
  44:	20000517          	auipc	a0,0x20000
  48:	5cc50513          	addi	a0,a0,1484 # 20000610 <system_sram_size>
D:\pangoPRJ\RISC-V\rtl\SparrowRV\bsp\bsp_app\obj/../lib/startup/startup.S:31
  4c:	81818593          	addi	a1,gp,-2024 # 20000628 <_end>
D:\pangoPRJ\RISC-V\rtl\SparrowRV\bsp\bsp_app\obj/../lib/startup/startup.S:32
  50:	00b57863          	bgeu	a0,a1,60 <_start+0x60>
D:\pangoPRJ\RISC-V\rtl\SparrowRV\bsp\bsp_app\obj/../lib/startup/startup.S:34
  54:	00052023          	sw	zero,0(a0)
D:\pangoPRJ\RISC-V\rtl\SparrowRV\bsp\bsp_app\obj/../lib/startup/startup.S:35
  58:	00450513          	addi	a0,a0,4
D:\pangoPRJ\RISC-V\rtl\SparrowRV\bsp\bsp_app\obj/../lib/startup/startup.S:36
  5c:	feb56ce3          	bltu	a0,a1,54 <_start+0x54>
D:\pangoPRJ\RISC-V\rtl\SparrowRV\bsp\bsp_app\obj/../lib/startup/startup.S:40
  60:	050000ef          	jal	ra,b0 <sparrowrv_system_init>
D:\pangoPRJ\RISC-V\rtl\SparrowRV\bsp\bsp_app\obj/../lib/startup/startup.S:41
  64:	430010ef          	jal	ra,1494 <main>
D:\pangoPRJ\RISC-V\rtl\SparrowRV\bsp\bsp_app\obj/../lib/startup/startup.S:43
  68:	3470d073          	csrwi	0x347,1

0000006c <loop>:
loop():
D:\pangoPRJ\RISC-V\rtl\SparrowRV\bsp\bsp_app\obj/../lib/startup/startup.S:45
  6c:	0000006f          	j	6c <loop>

00000070 <trap_vector_tab>:
trap_vector_tab():
D:\pangoPRJ\RISC-V\rtl\SparrowRV\bsp\bsp_app\obj/../lib/startup/startup.S:54
  70:	f91ff06f          	j	0 <_start>
D:\pangoPRJ\RISC-V\rtl\SparrowRV\bsp\bsp_app\obj/../lib/startup/startup.S:55
  74:	0a40006f          	j	118 <HardFault_Handler>
D:\pangoPRJ\RISC-V\rtl\SparrowRV\bsp\bsp_app\obj/../lib/startup/startup.S:56
  78:	7cc0106f          	j	1844 <SW_Handler>
D:\pangoPRJ\RISC-V\rtl\SparrowRV\bsp\bsp_app\obj/../lib/startup/startup.S:57
  7c:	7c40106f          	j	1840 <SysTick_Handler>
D:\pangoPRJ\RISC-V\rtl\SparrowRV\bsp\bsp_app\obj/../lib/startup/startup.S:58
  80:	0a40006f          	j	124 <PLIC0_Handler>
D:\pangoPRJ\RISC-V\rtl\SparrowRV\bsp\bsp_app\obj/../lib/startup/startup.S:59
  84:	0a40006f          	j	128 <PLIC1_FPIOA_ELI0_Handler>
D:\pangoPRJ\RISC-V\rtl\SparrowRV\bsp\bsp_app\obj/../lib/startup/startup.S:60
  88:	0a40006f          	j	12c <PLIC2_FPIOA_ELI1_Handler>
D:\pangoPRJ\RISC-V\rtl\SparrowRV\bsp\bsp_app\obj/../lib/startup/startup.S:61
  8c:	0a40006f          	j	130 <PLIC3_FPIOA_ELI2_Handler>
D:\pangoPRJ\RISC-V\rtl\SparrowRV\bsp\bsp_app\obj/../lib/startup/startup.S:62
  90:	0a40006f          	j	134 <PLIC4_FPIOA_ELI3_Handler>
D:\pangoPRJ\RISC-V\rtl\SparrowRV\bsp\bsp_app\obj/../lib/startup/startup.S:63
  94:	0a40006f          	j	138 <PLIC5_UART0_TX_Handler>
D:\pangoPRJ\RISC-V\rtl\SparrowRV\bsp\bsp_app\obj/../lib/startup/startup.S:64
  98:	0a40006f          	j	13c <PLIC6_UART0_RX_Handler>
D:\pangoPRJ\RISC-V\rtl\SparrowRV\bsp\bsp_app\obj/../lib/startup/startup.S:65
  9c:	0a40006f          	j	140 <PLIC7_UART1_TX_Handler>
D:\pangoPRJ\RISC-V\rtl\SparrowRV\bsp\bsp_app\obj/../lib/startup/startup.S:66
  a0:	0a40006f          	j	144 <PLIC8_UART1_RX_Handler>
D:\pangoPRJ\RISC-V\rtl\SparrowRV\bsp\bsp_app\obj/../lib/startup/startup.S:67
  a4:	0a40006f          	j	148 <PLIC9_TIMER0_OF_Handler>
D:\pangoPRJ\RISC-V\rtl\SparrowRV\bsp\bsp_app\obj/../lib/startup/startup.S:68
  a8:	0a40006f          	j	14c <PLIC10_SPI0_END_Handler>
  ac:	0000                	unimp
	...

Disassembly of section .text:

000000b0 <sparrowrv_system_init>:
sparrowrv_system_init():
D:\Files\Pango\RISCV-SOC\RISC-V\rtl\SparrowRV\bsp\bsp_app\obj/../lib/startup/init.c:10
//系统初始化，会在main()函数之前执行
void sparrowrv_system_init()
{
    uint32_t tmp;
    //设置中断向量表基地址
    write_csr(mtvec, &trap_vector_tab);
      b0:	000007b7          	lui	a5,0x0
      b4:	07078793          	addi	a5,a5,112 # 70 <trap_vector_tab>
      b8:	30579073          	csrw	mtvec,a5
D:\Files\Pango\RISCV-SOC\RISC-V\rtl\SparrowRV\bsp\bsp_app\obj/../lib/startup/init.c:12
    //读取系统信息
    tmp=read_csr(mimpid);
      bc:	f1302773          	csrr	a4,mimpid
D:\Files\Pango\RISCV-SOC\RISC-V\rtl\SparrowRV\bsp\bsp_app\obj/../lib/startup/init.c:13
    system_cpu_freq = (tmp & 0x00007FFF) * 10000;//读取时钟频率Hz
      c0:	01171793          	slli	a5,a4,0x11
      c4:	0117d793          	srli	a5,a5,0x11
      c8:	000026b7          	lui	a3,0x2
      cc:	71068693          	addi	a3,a3,1808 # 2710 <__muldf3+0x544>
      d0:	02d787b3          	mul	a5,a5,a3
      d4:	80f1a823          	sw	a5,-2032(gp) # 20000620 <system_cpu_freq>
D:\Files\Pango\RISCV-SOC\RISC-V\rtl\SparrowRV\bsp\bsp_app\obj/../lib/startup/init.c:14
    system_cpu_freqM = system_cpu_freq / 1000000UL;//读取时钟频率MHz
      d8:	000f46b7          	lui	a3,0xf4
      dc:	24068693          	addi	a3,a3,576 # f4240 <_app_prog_size+0xec240>
      e0:	02d7d7b3          	divu	a5,a5,a3
      e4:	200006b7          	lui	a3,0x20000
      e8:	60f6ac23          	sw	a5,1560(a3) # 20000618 <system_cpu_freqM>
D:\Files\Pango\RISCV-SOC\RISC-V\rtl\SparrowRV\bsp\bsp_app\obj/../lib/startup/init.c:15
    system_iram_size = ((tmp & 0x00FF0000) >> 16)*1024;//读取程序存储器iram的大小
      ec:	01075793          	srli	a5,a4,0x10
      f0:	0ff7f793          	andi	a5,a5,255
      f4:	00a79793          	slli	a5,a5,0xa
      f8:	80f1aa23          	sw	a5,-2028(gp) # 20000624 <system_iram_size>
D:\Files\Pango\RISCV-SOC\RISC-V\rtl\SparrowRV\bsp\bsp_app\obj/../lib/startup/init.c:16
    system_sram_size = (tmp >> 24)*1024;//读取数据存储器sram的大小
      fc:	01875713          	srli	a4,a4,0x18
     100:	00a71713          	slli	a4,a4,0xa
     104:	200007b7          	lui	a5,0x20000
     108:	60e7a823          	sw	a4,1552(a5) # 20000610 <system_sram_size>
D:\Files\Pango\RISCV-SOC\RISC-V\rtl\SparrowRV\bsp\bsp_app\obj/../lib/startup/init.c:17
    system_vendorid = read_csr(mvendorid);//读取版本ID
     10c:	f1102773          	csrr	a4,mvendorid
     110:	80e1a623          	sw	a4,-2036(gp) # 2000061c <system_vendorid>
D:\Files\Pango\RISCV-SOC\RISC-V\rtl\SparrowRV\bsp\bsp_app\obj/../lib/startup/init.c:20

    //可以写点其他的初始化代码
}
     114:	00008067          	ret

00000118 <HardFault_Handler>:
HardFault_Handler():
D:\pangoPRJ\RISC-V\rtl\SparrowRV\bsp\bsp_app\obj/../lib/startup/startup.S:88
     118:	0000006f          	j	118 <HardFault_Handler>
D:\pangoPRJ\RISC-V\rtl\SparrowRV\bsp\bsp_app\obj/../lib/startup/startup.S:89
     11c:	0000006f          	j	11c <HardFault_Handler+0x4>
D:\pangoPRJ\RISC-V\rtl\SparrowRV\bsp\bsp_app\obj/../lib/startup/startup.S:90
     120:	0000006f          	j	120 <HardFault_Handler+0x8>

00000124 <PLIC0_Handler>:
PLIC0_Handler():
D:\pangoPRJ\RISC-V\rtl\SparrowRV\bsp\bsp_app\obj/../lib/startup/startup.S:91
     124:	0000006f          	j	124 <PLIC0_Handler>

00000128 <PLIC1_FPIOA_ELI0_Handler>:
PLIC1_FPIOA_ELI0_Handler():
D:\pangoPRJ\RISC-V\rtl\SparrowRV\bsp\bsp_app\obj/../lib/startup/startup.S:92
     128:	0000006f          	j	128 <PLIC1_FPIOA_ELI0_Handler>

0000012c <PLIC2_FPIOA_ELI1_Handler>:
PLIC2_FPIOA_ELI1_Handler():
D:\pangoPRJ\RISC-V\rtl\SparrowRV\bsp\bsp_app\obj/../lib/startup/startup.S:93
     12c:	0000006f          	j	12c <PLIC2_FPIOA_ELI1_Handler>

00000130 <PLIC3_FPIOA_ELI2_Handler>:
PLIC3_FPIOA_ELI2_Handler():
D:\pangoPRJ\RISC-V\rtl\SparrowRV\bsp\bsp_app\obj/../lib/startup/startup.S:94
     130:	0000006f          	j	130 <PLIC3_FPIOA_ELI2_Handler>

00000134 <PLIC4_FPIOA_ELI3_Handler>:
PLIC4_FPIOA_ELI3_Handler():
D:\pangoPRJ\RISC-V\rtl\SparrowRV\bsp\bsp_app\obj/../lib/startup/startup.S:95
     134:	0000006f          	j	134 <PLIC4_FPIOA_ELI3_Handler>

00000138 <PLIC5_UART0_TX_Handler>:
PLIC5_UART0_TX_Handler():
D:\pangoPRJ\RISC-V\rtl\SparrowRV\bsp\bsp_app\obj/../lib/startup/startup.S:96
     138:	0000006f          	j	138 <PLIC5_UART0_TX_Handler>

0000013c <PLIC6_UART0_RX_Handler>:
PLIC6_UART0_RX_Handler():
D:\pangoPRJ\RISC-V\rtl\SparrowRV\bsp\bsp_app\obj/../lib/startup/startup.S:97
     13c:	0000006f          	j	13c <PLIC6_UART0_RX_Handler>

00000140 <PLIC7_UART1_TX_Handler>:
PLIC7_UART1_TX_Handler():
D:\pangoPRJ\RISC-V\rtl\SparrowRV\bsp\bsp_app\obj/../lib/startup/startup.S:98
     140:	0000006f          	j	140 <PLIC7_UART1_TX_Handler>

00000144 <PLIC8_UART1_RX_Handler>:
PLIC8_UART1_RX_Handler():
D:\pangoPRJ\RISC-V\rtl\SparrowRV\bsp\bsp_app\obj/../lib/startup/startup.S:99
     144:	0000006f          	j	144 <PLIC8_UART1_RX_Handler>

00000148 <PLIC9_TIMER0_OF_Handler>:
PLIC9_TIMER0_OF_Handler():
D:\pangoPRJ\RISC-V\rtl\SparrowRV\bsp\bsp_app\obj/../lib/startup/startup.S:100
     148:	0000006f          	j	148 <PLIC9_TIMER0_OF_Handler>

0000014c <PLIC10_SPI0_END_Handler>:
PLIC10_SPI0_END_Handler():
D:\pangoPRJ\RISC-V\rtl\SparrowRV\bsp\bsp_app\obj/../lib/startup/startup.S:101
     14c:	0000006f          	j	14c <PLIC10_SPI0_END_Handler>

00000150 <dds_set_amp>:
dds_set_amp():
D:\Files\Pango\RISCV-SOC\RISC-V\rtl\SparrowRV\bsp\bsp_app\obj/../lib/perip/src/dds.c:33
 *      Author: 19226
 */
#include "dds.h"

void dds_set_amp(uint32_t amp){
  SYS_RWMEM_W(DDS_AMP) = amp;
     150:	800007b7          	lui	a5,0x80000
     154:	00a7a023          	sw	a0,0(a5) # 80000000 <_sp+0x5fffc000>
D:\Files\Pango\RISCV-SOC\RISC-V\rtl\SparrowRV\bsp\bsp_app\obj/../lib/perip/src/dds.c:34
};
     158:	00008067          	ret

0000015c <dds_set_freq>:
dds_set_freq():
D:\Files\Pango\RISCV-SOC\RISC-V\rtl\SparrowRV\bsp\bsp_app\obj/../lib/perip/src/dds.c:37

void dds_set_freq(uint32_t freq){
  SYS_RWMEM_W(DDS_FREQ) = freq;
     15c:	800007b7          	lui	a5,0x80000
     160:	00a7a223          	sw	a0,4(a5) # 80000004 <_sp+0x5fffc004>
D:\Files\Pango\RISCV-SOC\RISC-V\rtl\SparrowRV\bsp\bsp_app\obj/../lib/perip/src/dds.c:38
};
     164:	00008067          	ret

00000168 <dds_set_min>:
dds_set_min():
D:\Files\Pango\RISCV-SOC\RISC-V\rtl\SparrowRV\bsp\bsp_app\obj/../lib/perip/src/dds.c:41

void dds_set_min(uint32_t min){
  SYS_RWMEM_W(DDS_MIN) = min;
     168:	800007b7          	lui	a5,0x80000
     16c:	00a7a423          	sw	a0,8(a5) # 80000008 <_sp+0x5fffc008>
D:\Files\Pango\RISCV-SOC\RISC-V\rtl\SparrowRV\bsp\bsp_app\obj/../lib/perip/src/dds.c:42
};
     170:	00008067          	ret

00000174 <dds_set_phase>:
dds_set_phase():
D:\Files\Pango\RISCV-SOC\RISC-V\rtl\SparrowRV\bsp\bsp_app\obj/../lib/perip/src/dds.c:45

void dds_set_phase(uint32_t phase){
  SYS_RWMEM_W(DDS_PHASE) = phase;
     174:	800007b7          	lui	a5,0x80000
     178:	00a7a623          	sw	a0,12(a5) # 8000000c <_sp+0x5fffc00c>
D:\Files\Pango\RISCV-SOC\RISC-V\rtl\SparrowRV\bsp\bsp_app\obj/../lib/perip/src/dds.c:46
};
     17c:	00008067          	ret

00000180 <dds_wavetype>:
dds_wavetype():
D:\Files\Pango\RISCV-SOC\RISC-V\rtl\SparrowRV\bsp\bsp_app\obj/../lib/perip/src/dds.c:49

void dds_wavetype(uint32_t type){
  SYS_RWMEM_W(DDS_TYPE) = type;
     180:	800007b7          	lui	a5,0x80000
     184:	00a7a823          	sw	a0,16(a5) # 80000010 <_sp+0x5fffc010>
D:\Files\Pango\RISCV-SOC\RISC-V\rtl\SparrowRV\bsp\bsp_app\obj/../lib/perip/src/dds.c:50
};
     188:	00008067          	ret

0000018c <dds_get_state>:
dds_get_state():
D:\Files\Pango\RISCV-SOC\RISC-V\rtl\SparrowRV\bsp\bsp_app\obj/../lib/perip/src/dds.c:53

void dds_get_state(uint32_t *amp, uint32_t *freq, uint32_t *min, uint32_t *phase, uint32_t *type){
  *amp = SYS_RWMEM_W(DDS_AMP);
     18c:	800007b7          	lui	a5,0x80000
     190:	0007a303          	lw	t1,0(a5) # 80000000 <_sp+0x5fffc000>
     194:	00652023          	sw	t1,0(a0)
D:\Files\Pango\RISCV-SOC\RISC-V\rtl\SparrowRV\bsp\bsp_app\obj/../lib/perip/src/dds.c:54
  *freq = SYS_RWMEM_W(DDS_FREQ);
     198:	0047a503          	lw	a0,4(a5)
     19c:	00a5a023          	sw	a0,0(a1)
D:\Files\Pango\RISCV-SOC\RISC-V\rtl\SparrowRV\bsp\bsp_app\obj/../lib/perip/src/dds.c:55
  *min = SYS_RWMEM_W(DDS_MIN);
     1a0:	0087a583          	lw	a1,8(a5)
     1a4:	00b62023          	sw	a1,0(a2)
D:\Files\Pango\RISCV-SOC\RISC-V\rtl\SparrowRV\bsp\bsp_app\obj/../lib/perip/src/dds.c:56
  *phase = SYS_RWMEM_W(DDS_PHASE);
     1a8:	00c7a603          	lw	a2,12(a5)
     1ac:	00c6a023          	sw	a2,0(a3)
D:\Files\Pango\RISCV-SOC\RISC-V\rtl\SparrowRV\bsp\bsp_app\obj/../lib/perip/src/dds.c:57
  *type = SYS_RWMEM_W(DDS_TYPE);
     1b0:	0107a783          	lw	a5,16(a5)
     1b4:	00f72023          	sw	a5,0(a4)
D:\Files\Pango\RISCV-SOC\RISC-V\rtl\SparrowRV\bsp\bsp_app\obj/../lib/perip/src/dds.c:58
};
     1b8:	00008067          	ret

000001bc <dso_set_trig_level>:
dso_set_trig_level():
D:\Files\Pango\RISCV-SOC\RISC-V\rtl\SparrowRV\bsp\bsp_app\obj/../lib/perip/src/dso.c:33
 *      Author: 19226
 */
#include "dso.h"

void dso_set_trig_level(uint32_t trig_level){
  SYS_RWMEM_W(DSO_TRIG_LEVEL) = trig_level;
     1bc:	c00007b7          	lui	a5,0xc0000
     1c0:	00a7a023          	sw	a0,0(a5) # c0000000 <_sp+0x9fffc000>
D:\Files\Pango\RISCV-SOC\RISC-V\rtl\SparrowRV\bsp\bsp_app\obj/../lib/perip/src/dso.c:34
};
     1c4:	00008067          	ret

000001c8 <dso_set_deci_rate>:
dso_set_deci_rate():
D:\Files\Pango\RISCV-SOC\RISC-V\rtl\SparrowRV\bsp\bsp_app\obj/../lib/perip/src/dso.c:37

void dso_set_deci_rate(uint32_t deci_rate){
  SYS_RWMEM_W(DSO_DECI_RATE) = deci_rate;
     1c8:	c00007b7          	lui	a5,0xc0000
     1cc:	00a7a223          	sw	a0,4(a5) # c0000004 <_sp+0x9fffc004>
D:\Files\Pango\RISCV-SOC\RISC-V\rtl\SparrowRV\bsp\bsp_app\obj/../lib/perip/src/dso.c:38
};
     1d0:	00008067          	ret

000001d4 <dso_set_wave_run>:
dso_set_wave_run():
D:\Files\Pango\RISCV-SOC\RISC-V\rtl\SparrowRV\bsp\bsp_app\obj/../lib/perip/src/dso.c:41

void dso_set_wave_run(uint32_t wave_run){
  SYS_RWMEM_W(DSO_WAVE_RUN) = wave_run;
     1d4:	c00007b7          	lui	a5,0xc0000
     1d8:	00a7a423          	sw	a0,8(a5) # c0000008 <_sp+0x9fffc008>
D:\Files\Pango\RISCV-SOC\RISC-V\rtl\SparrowRV\bsp\bsp_app\obj/../lib/perip/src/dso.c:42
};
     1dc:	00008067          	ret

000001e0 <dso_set_trig_edge>:
dso_set_trig_edge():
D:\Files\Pango\RISCV-SOC\RISC-V\rtl\SparrowRV\bsp\bsp_app\obj/../lib/perip/src/dso.c:45

void dso_set_trig_edge(uint32_t trig_edge){
  SYS_RWMEM_W(DSO_TRIG_EDGE) = trig_edge;
     1e0:	c00007b7          	lui	a5,0xc0000
     1e4:	00a7a623          	sw	a0,12(a5) # c000000c <_sp+0x9fffc00c>
D:\Files\Pango\RISCV-SOC\RISC-V\rtl\SparrowRV\bsp\bsp_app\obj/../lib/perip/src/dso.c:46
};
     1e8:	00008067          	ret

000001ec <dso_set_v_scale>:
dso_set_v_scale():
D:\Files\Pango\RISCV-SOC\RISC-V\rtl\SparrowRV\bsp\bsp_app\obj/../lib/perip/src/dso.c:49

void dso_set_v_scale(uint32_t v_scale){
  SYS_RWMEM_W(DSO_V_SCALE) = v_scale;
     1ec:	c00007b7          	lui	a5,0xc0000
     1f0:	00a7a823          	sw	a0,16(a5) # c0000010 <_sp+0x9fffc010>
D:\Files\Pango\RISCV-SOC\RISC-V\rtl\SparrowRV\bsp\bsp_app\obj/../lib/perip/src/dso.c:50
};
     1f4:	00008067          	ret

000001f8 <dso_set_fft_en>:
dso_set_fft_en():
D:\Files\Pango\RISCV-SOC\RISC-V\rtl\SparrowRV\bsp\bsp_app\obj/../lib/perip/src/dso.c:53

void dso_set_fft_en(uint32_t fft_en){
  SYS_RWMEM_W(DSO_FFT_EN) = fft_en;
     1f8:	c00007b7          	lui	a5,0xc0000
     1fc:	00a7aa23          	sw	a0,20(a5) # c0000014 <_sp+0x9fffc014>
D:\Files\Pango\RISCV-SOC\RISC-V\rtl\SparrowRV\bsp\bsp_app\obj/../lib/perip/src/dso.c:54
};
     200:	00008067          	ret

00000204 <dso_get_freq>:
dso_get_freq():
D:\Files\Pango\RISCV-SOC\RISC-V\rtl\SparrowRV\bsp\bsp_app\obj/../lib/perip/src/dso.c:57

uint32_t dso_get_freq(){
  return SYS_RWMEM_W(DSO_FREQ);
     204:	c00007b7          	lui	a5,0xc0000
     208:	0187a503          	lw	a0,24(a5) # c0000018 <_sp+0x9fffc018>
D:\Files\Pango\RISCV-SOC\RISC-V\rtl\SparrowRV\bsp\bsp_app\obj/../lib/perip/src/dso.c:58
};
     20c:	00008067          	ret

00000210 <dso_get_vpp>:
dso_get_vpp():
D:\Files\Pango\RISCV-SOC\RISC-V\rtl\SparrowRV\bsp\bsp_app\obj/../lib/perip/src/dso.c:61

uint32_t dso_get_vpp(){
  return SYS_RWMEM_W(DSO_VPP);
     210:	c00007b7          	lui	a5,0xc0000
     214:	01c7a503          	lw	a0,28(a5) # c000001c <_sp+0x9fffc01c>
D:\Files\Pango\RISCV-SOC\RISC-V\rtl\SparrowRV\bsp\bsp_app\obj/../lib/perip/src/dso.c:62
};
     218:	00008067          	ret

0000021c <dso_get_max>:
dso_get_max():
D:\Files\Pango\RISCV-SOC\RISC-V\rtl\SparrowRV\bsp\bsp_app\obj/../lib/perip/src/dso.c:65

uint32_t dso_get_max(){
  return SYS_RWMEM_W(DSO_MAX);
     21c:	c00007b7          	lui	a5,0xc0000
     220:	0207a503          	lw	a0,32(a5) # c0000020 <_sp+0x9fffc020>
D:\Files\Pango\RISCV-SOC\RISC-V\rtl\SparrowRV\bsp\bsp_app\obj/../lib/perip/src/dso.c:66
};
     224:	00008067          	ret

00000228 <dso_get_min>:
dso_get_min():
D:\Files\Pango\RISCV-SOC\RISC-V\rtl\SparrowRV\bsp\bsp_app\obj/../lib/perip/src/dso.c:69

uint32_t dso_get_min(){
  return SYS_RWMEM_W(DSO_MIN);
     228:	c00007b7          	lui	a5,0xc0000
     22c:	0247a503          	lw	a0,36(a5) # c0000024 <_sp+0x9fffc024>
D:\Files\Pango\RISCV-SOC\RISC-V\rtl\SparrowRV\bsp\bsp_app\obj/../lib/perip/src/dso.c:70
};
     230:	00008067          	ret

00000234 <dso_set_fir_en>:
dso_set_fir_en():
D:\Files\Pango\RISCV-SOC\RISC-V\rtl\SparrowRV\bsp\bsp_app\obj/../lib/perip/src/dso.c:73

void dso_set_fir_en(uint32_t fir_en){
  SYS_RWMEM_W(DSO_FIR_EN) = fir_en;
     234:	c00007b7          	lui	a5,0xc0000
     238:	02a7a423          	sw	a0,40(a5) # c0000028 <_sp+0x9fffc028>
D:\Files\Pango\RISCV-SOC\RISC-V\rtl\SparrowRV\bsp\bsp_app\obj/../lib/perip/src/dso.c:74
};
     23c:	00008067          	ret

00000240 <dso_set_trig_line>:
dso_set_trig_line():
D:\Files\Pango\RISCV-SOC\RISC-V\rtl\SparrowRV\bsp\bsp_app\obj/../lib/perip/src/dso.c:77

void dso_set_trig_line(uint32_t trig_line){
  SYS_RWMEM_W(DSO_TRIG_LINE) = trig_line;
     240:	c00007b7          	lui	a5,0xc0000
     244:	02a7a623          	sw	a0,44(a5) # c000002c <_sp+0x9fffc02c>
D:\Files\Pango\RISCV-SOC\RISC-V\rtl\SparrowRV\bsp\bsp_app\obj/../lib/perip/src/dso.c:78
};
     248:	00008067          	ret

0000024c <fpioa_perips_out_set>:
fpioa_perips_out_set():
D:\Files\Pango\RISCV-SOC\RISC-V\rtl\SparrowRV\bsp\bsp_app\obj/../lib/perip/src/fpioa.c:15
 *
 * @return  无
 */
void fpioa_perips_out_set(uint8_t fpioa_perips_o, uint8_t FPIOAx)
{
    SYS_RWMEM_B(FPIOA_OT_BASE + FPIOAx) = fpioa_perips_o;
     24c:	400017b7          	lui	a5,0x40001
     250:	f0078793          	addi	a5,a5,-256 # 40000f00 <_sp+0x1fffcf00>
     254:	00f585b3          	add	a1,a1,a5
     258:	00a58023          	sb	a0,0(a1)
D:\Files\Pango\RISCV-SOC\RISC-V\rtl\SparrowRV\bsp\bsp_app\obj/../lib/perip/src/fpioa.c:16
}
     25c:	00008067          	ret

00000260 <fpioa_perips_in_set>:
fpioa_perips_in_set():
D:\Files\Pango\RISCV-SOC\RISC-V\rtl\SparrowRV\bsp\bsp_app\obj/../lib/perip/src/fpioa.c:30
 *
 * @return  无
 */
void fpioa_perips_in_set(uint8_t fpioa_perips_i, uint8_t FPIOAx)
{
    SYS_RWMEM_B(FPIOA_IN_BASE + fpioa_perips_i) = FPIOAx;
     260:	400017b7          	lui	a5,0x40001
     264:	f8078793          	addi	a5,a5,-128 # 40000f80 <_sp+0x1fffcf80>
     268:	00f50533          	add	a0,a0,a5
     26c:	00b50023          	sb	a1,0(a0)
D:\Files\Pango\RISCV-SOC\RISC-V\rtl\SparrowRV\bsp\bsp_app\obj/../lib/perip/src/fpioa.c:31
}
     270:	00008067          	ret

00000274 <la_set_data>:
la_set_data():
D:\Files\Pango\RISCV-SOC\RISC-V\rtl\SparrowRV\bsp\bsp_app\obj/../lib/perip/src/la.c:33
 *      Author: 19226
 */
#include "la.h"

void la_set_data(uint32_t data){
  SYS_RWMEM_W(LA_DATA) = data;
     274:	e00007b7          	lui	a5,0xe0000
     278:	00a7a023          	sw	a0,0(a5) # e0000000 <_sp+0xbfffc000>
D:\Files\Pango\RISCV-SOC\RISC-V\rtl\SparrowRV\bsp\bsp_app\obj/../lib/perip/src/la.c:34
};
     27c:	00008067          	ret

00000280 <la_set_trgen>:
la_set_trgen():
D:\Files\Pango\RISCV-SOC\RISC-V\rtl\SparrowRV\bsp\bsp_app\obj/../lib/perip/src/la.c:37

void la_set_trgen(uint32_t trgen){
  SYS_RWMEM_W(LA_TRGEN) = trgen;
     280:	e00007b7          	lui	a5,0xe0000
     284:	00a7a223          	sw	a0,4(a5) # e0000004 <_sp+0xbfffc004>
D:\Files\Pango\RISCV-SOC\RISC-V\rtl\SparrowRV\bsp\bsp_app\obj/../lib/perip/src/la.c:38
};
     288:	00008067          	ret

0000028c <la_set_chnsel>:
la_set_chnsel():
D:\Files\Pango\RISCV-SOC\RISC-V\rtl\SparrowRV\bsp\bsp_app\obj/../lib/perip/src/la.c:41

void la_set_chnsel(uint32_t chnsel){
  SYS_RWMEM_W(LA_CHNSEL) = chnsel;
     28c:	e00007b7          	lui	a5,0xe0000
     290:	00a7a423          	sw	a0,8(a5) # e0000008 <_sp+0xbfffc008>
D:\Files\Pango\RISCV-SOC\RISC-V\rtl\SparrowRV\bsp\bsp_app\obj/../lib/perip/src/la.c:42
};
     294:	00008067          	ret

00000298 <la_set_modesel>:
la_set_modesel():
D:\Files\Pango\RISCV-SOC\RISC-V\rtl\SparrowRV\bsp\bsp_app\obj/../lib/perip/src/la.c:45

void la_set_modesel(uint32_t modesel){
  SYS_RWMEM_W(LA_MODESEL) = modesel;
     298:	e00007b7          	lui	a5,0xe0000
     29c:	00a7a623          	sw	a0,12(a5) # e000000c <_sp+0xbfffc00c>
D:\Files\Pango\RISCV-SOC\RISC-V\rtl\SparrowRV\bsp\bsp_app\obj/../lib/perip/src/la.c:46
};
     2a0:	00008067          	ret

000002a4 <la_set_freqsel>:
la_set_freqsel():
D:\Files\Pango\RISCV-SOC\RISC-V\rtl\SparrowRV\bsp\bsp_app\obj/../lib/perip/src/la.c:49

void la_set_freqsel(uint32_t freqsel){
  SYS_RWMEM_W(LA_FREQSEL) = freqsel;
     2a4:	e00007b7          	lui	a5,0xe0000
     2a8:	00a7a823          	sw	a0,16(a5) # e0000010 <_sp+0xbfffc010>
D:\Files\Pango\RISCV-SOC\RISC-V\rtl\SparrowRV\bsp\bsp_app\obj/../lib/perip/src/la.c:50
};
     2ac:	00008067          	ret

000002b0 <la_set_prenum>:
la_set_prenum():
D:\Files\Pango\RISCV-SOC\RISC-V\rtl\SparrowRV\bsp\bsp_app\obj/../lib/perip/src/la.c:53

void la_set_prenum(uint32_t prenum){
  SYS_RWMEM_W(LA_PRENUM) = prenum;
     2b0:	e00007b7          	lui	a5,0xe0000
     2b4:	00a7aa23          	sw	a0,20(a5) # e0000014 <_sp+0xbfffc014>
D:\Files\Pango\RISCV-SOC\RISC-V\rtl\SparrowRV\bsp\bsp_app\obj/../lib/perip/src/la.c:54
};
     2b8:	00008067          	ret

000002bc <la_get_data>:
la_get_data():
D:\Files\Pango\RISCV-SOC\RISC-V\rtl\SparrowRV\bsp\bsp_app\obj/../lib/perip/src/la.c:57

uint32_t la_get_data(){
  return SYS_RWMEM_W(LA_DATA);
     2bc:	e00007b7          	lui	a5,0xe0000
     2c0:	0007a503          	lw	a0,0(a5) # e0000000 <_sp+0xbfffc000>
D:\Files\Pango\RISCV-SOC\RISC-V\rtl\SparrowRV\bsp\bsp_app\obj/../lib/perip/src/la.c:58
};
     2c4:	00008067          	ret

000002c8 <la_get_trgen>:
la_get_trgen():
D:\Files\Pango\RISCV-SOC\RISC-V\rtl\SparrowRV\bsp\bsp_app\obj/../lib/perip/src/la.c:61

uint32_t la_get_trgen(){
  return SYS_RWMEM_W(LA_TRGEN);
     2c8:	e00007b7          	lui	a5,0xe0000
     2cc:	0047a503          	lw	a0,4(a5) # e0000004 <_sp+0xbfffc004>
D:\Files\Pango\RISCV-SOC\RISC-V\rtl\SparrowRV\bsp\bsp_app\obj/../lib/perip/src/la.c:62
};
     2d0:	00008067          	ret

000002d4 <la_get_chnsel>:
la_get_chnsel():
D:\Files\Pango\RISCV-SOC\RISC-V\rtl\SparrowRV\bsp\bsp_app\obj/../lib/perip/src/la.c:65

uint32_t la_get_chnsel(){
  return SYS_RWMEM_W(LA_CHNSEL);
     2d4:	e00007b7          	lui	a5,0xe0000
     2d8:	0087a503          	lw	a0,8(a5) # e0000008 <_sp+0xbfffc008>
D:\Files\Pango\RISCV-SOC\RISC-V\rtl\SparrowRV\bsp\bsp_app\obj/../lib/perip/src/la.c:66
};
     2dc:	00008067          	ret

000002e0 <la_get_modesel>:
la_get_modesel():
D:\Files\Pango\RISCV-SOC\RISC-V\rtl\SparrowRV\bsp\bsp_app\obj/../lib/perip/src/la.c:69

uint32_t la_get_modesel(){
  return SYS_RWMEM_W(LA_MODESEL);
     2e0:	e00007b7          	lui	a5,0xe0000
     2e4:	00c7a503          	lw	a0,12(a5) # e000000c <_sp+0xbfffc00c>
D:\Files\Pango\RISCV-SOC\RISC-V\rtl\SparrowRV\bsp\bsp_app\obj/../lib/perip/src/la.c:70
};
     2e8:	00008067          	ret

000002ec <la_get_freqsel>:
la_get_freqsel():
D:\Files\Pango\RISCV-SOC\RISC-V\rtl\SparrowRV\bsp\bsp_app\obj/../lib/perip/src/la.c:73

uint32_t la_get_freqsel(){
  return SYS_RWMEM_W(LA_FREQSEL);
     2ec:	e00007b7          	lui	a5,0xe0000
     2f0:	0107a503          	lw	a0,16(a5) # e0000010 <_sp+0xbfffc010>
D:\Files\Pango\RISCV-SOC\RISC-V\rtl\SparrowRV\bsp\bsp_app\obj/../lib/perip/src/la.c:74
};
     2f4:	00008067          	ret

000002f8 <la_get_prenum>:
la_get_prenum():
D:\Files\Pango\RISCV-SOC\RISC-V\rtl\SparrowRV\bsp\bsp_app\obj/../lib/perip/src/la.c:77

uint32_t la_get_prenum(){
  return SYS_RWMEM_W(LA_PRENUM);
     2f8:	e00007b7          	lui	a5,0xe0000
     2fc:	0147a503          	lw	a0,20(a5) # e0000014 <_sp+0xbfffc014>
D:\Files\Pango\RISCV-SOC\RISC-V\rtl\SparrowRV\bsp\bsp_app\obj/../lib/perip/src/la.c:78
};
     300:	00008067          	ret

00000304 <la_set_uart_en>:
la_set_uart_en():
D:\Files\Pango\RISCV-SOC\RISC-V\rtl\SparrowRV\bsp\bsp_app\obj/../lib/perip/src/la.c:81

void la_set_uart_en(uint32_t uart_en){
  SYS_RWMEM_W(LA_UART_EN) = uart_en;
     304:	e00007b7          	lui	a5,0xe0000
     308:	00a7ac23          	sw	a0,24(a5) # e0000018 <_sp+0xbfffc018>
D:\Files\Pango\RISCV-SOC\RISC-V\rtl\SparrowRV\bsp\bsp_app\obj/../lib/perip/src/la.c:82
};
     30c:	00008067          	ret

00000310 <la_set_spi_en>:
la_set_spi_en():
D:\Files\Pango\RISCV-SOC\RISC-V\rtl\SparrowRV\bsp\bsp_app\obj/../lib/perip/src/la.c:85

void la_set_spi_en(uint32_t spi_en){
  SYS_RWMEM_W(LA_SPI_EN) = spi_en;
     310:	e00007b7          	lui	a5,0xe0000
     314:	00a7ae23          	sw	a0,28(a5) # e000001c <_sp+0xbfffc01c>
D:\Files\Pango\RISCV-SOC\RISC-V\rtl\SparrowRV\bsp\bsp_app\obj/../lib/perip/src/la.c:86
};
     318:	00008067          	ret

0000031c <la_set_interval>:
la_set_interval():
D:\Files\Pango\RISCV-SOC\RISC-V\rtl\SparrowRV\bsp\bsp_app\obj/../lib/perip/src/la.c:89

void la_set_interval(uint32_t interval){
  SYS_RWMEM_W(LA_INTERVAL) = interval;
     31c:	e00007b7          	lui	a5,0xe0000
     320:	02a7a023          	sw	a0,32(a5) # e0000020 <_sp+0xbfffc020>
D:\Files\Pango\RISCV-SOC\RISC-V\rtl\SparrowRV\bsp\bsp_app\obj/../lib/perip/src/la.c:90
};
     324:	00008067          	ret

00000328 <uart_enable_ctrl>:
uart_enable_ctrl():
D:\Files\Pango\RISCV-SOC\RISC-V\rtl\SparrowRV\bsp\bsp_app\obj/../lib/perip/src/uart.c:19
 * @return  无
 */
void uart_enable_ctrl(uint32_t UARTx, uint32_t uart_en)
{
    uint32_t tmp;
    tmp = SYS_RWMEM_W(UART_CTRL(UARTx));
     328:	00052783          	lw	a5,0(a0)
D:\Files\Pango\RISCV-SOC\RISC-V\rtl\SparrowRV\bsp\bsp_app\obj/../lib/perip/src/uart.c:20
    if(uart_en == ENABLE)
     32c:	00100713          	li	a4,1
     330:	00e58863          	beq	a1,a4,340 <uart_enable_ctrl+0x18>
D:\Files\Pango\RISCV-SOC\RISC-V\rtl\SparrowRV\bsp\bsp_app\obj/../lib/perip/src/uart.c:26
    {
        SYS_RWMEM_W(UART_CTRL(UARTx)) = tmp | 0b0011;
    }
    else
    {
        SYS_RWMEM_W(UART_CTRL(UARTx)) = tmp & 0b1100;
     334:	00c7f793          	andi	a5,a5,12
     338:	00f52023          	sw	a5,0(a0)
D:\Files\Pango\RISCV-SOC\RISC-V\rtl\SparrowRV\bsp\bsp_app\obj/../lib/perip/src/uart.c:28
    }
}
     33c:	00008067          	ret
D:\Files\Pango\RISCV-SOC\RISC-V\rtl\SparrowRV\bsp\bsp_app\obj/../lib/perip/src/uart.c:22
        SYS_RWMEM_W(UART_CTRL(UARTx)) = tmp | 0b0011;
     340:	0037e793          	ori	a5,a5,3
     344:	00f52023          	sw	a5,0(a0)
     348:	00008067          	ret

0000034c <uart_band_ctrl>:
uart_band_ctrl():
D:\Files\Pango\RISCV-SOC\RISC-V\rtl\SparrowRV\bsp\bsp_app\obj/../lib/perip/src/uart.c:43
 *
 * @return  无
 */
void uart_band_ctrl(uint32_t UARTx, uint32_t uart_band)
{
    SYS_RWMEM_W(UART_BAUD(UARTx)) = system_cpu_freq / uart_band ; //计算出分频器的值
     34c:	8101a783          	lw	a5,-2032(gp) # 20000620 <system_cpu_freq>
     350:	02b7d5b3          	divu	a1,a5,a1
     354:	00b52423          	sw	a1,8(a0)
D:\Files\Pango\RISCV-SOC\RISC-V\rtl\SparrowRV\bsp\bsp_app\obj/../lib/perip/src/uart.c:44
}
     358:	00008067          	ret

0000035c <uart_recv_date>:
uart_recv_date():
D:\Files\Pango\RISCV-SOC\RISC-V\rtl\SparrowRV\bsp\bsp_app\obj/../lib/perip/src/uart.c:92
 *
 * @return  返回接收到的数据
 */
uint8_t uart_recv_date(uint32_t UARTx)
{
    SYS_RWMEM_W(UART_STATUS(UARTx)) &= ~0x2;//清除接收标志
     35c:	00452783          	lw	a5,4(a0)
     360:	ffd7f793          	andi	a5,a5,-3
     364:	00f52223          	sw	a5,4(a0)
D:\Files\Pango\RISCV-SOC\RISC-V\rtl\SparrowRV\bsp\bsp_app\obj/../lib/perip/src/uart.c:93
    return (SYS_RWMEM_W(UART_RXDATA(UARTx)) & 0xff);//返回串口接收到的数据
     368:	01052503          	lw	a0,16(a0)
D:\Files\Pango\RISCV-SOC\RISC-V\rtl\SparrowRV\bsp\bsp_app\obj/../lib/perip/src/uart.c:94
}
     36c:	0ff57513          	andi	a0,a0,255
     370:	00008067          	ret

00000374 <uart_recv_flg>:
uart_recv_flg():
D:\Files\Pango\RISCV-SOC\RISC-V\rtl\SparrowRV\bsp\bsp_app\obj/../lib/perip/src/uart.c:108
 *
 * @return  如果接收缓冲区有数据，返回1；没有为0
 */
uint8_t uart_recv_flg(uint32_t UARTx)
{
    if (SYS_RWMEM_W(UART_STATUS(UARTx)) & 0x2)//有数据
     374:	00452503          	lw	a0,4(a0)
     378:	00155513          	srli	a0,a0,0x1
D:\Files\Pango\RISCV-SOC\RISC-V\rtl\SparrowRV\bsp\bsp_app\obj/../lib/perip/src/uart.c:116
    }
    else//没有数据
    {
        return 0;
    }
}
     37c:	00157513          	andi	a0,a0,1
     380:	00008067          	ret

00000384 <_out_null>:
_out_null():
D:\Files\Pango\RISCV-SOC\RISC-V\rtl\SparrowRV\bsp\bsp_app\obj/../lib/driver/src/printf.c:169

// internal null output
static inline void _out_null(char character, void* buffer, size_t idx, size_t maxlen)
{
  (void)character; (void)buffer; (void)idx; (void)maxlen;
}
     384:	00008067          	ret

00000388 <_ntoa_format>:
_ntoa_format():
D:\Files\Pango\RISCV-SOC\RISC-V\rtl\SparrowRV\bsp\bsp_app\obj/../lib/driver/src/printf.c:252
}


// internal itoa format
static size_t _ntoa_format(out_fct_type out, char* buffer, size_t idx, size_t maxlen, char* buf, size_t len, bool negative, unsigned int base, unsigned int prec, unsigned int width, unsigned int flags)
{
     388:	fd410113          	addi	sp,sp,-44
     38c:	02112423          	sw	ra,40(sp)
     390:	02812223          	sw	s0,36(sp)
     394:	02912023          	sw	s1,32(sp)
     398:	00a12423          	sw	a0,8(sp)
     39c:	00b12023          	sw	a1,0(sp)
     3a0:	00c12c23          	sw	a2,24(sp)
     3a4:	00d12223          	sw	a3,4(sp)
     3a8:	00e12823          	sw	a4,16(sp)
     3ac:	00078493          	mv	s1,a5
     3b0:	02c14503          	lbu	a0,44(sp)
     3b4:	03412683          	lw	a3,52(sp)
     3b8:	03c12703          	lw	a4,60(sp)
D:\Files\Pango\RISCV-SOC\RISC-V\rtl\SparrowRV\bsp\bsp_app\obj/../lib/driver/src/printf.c:254
  // pad leading zeros
  if (!(flags & FLAGS_LEFT)) {
     3bc:	00277793          	andi	a5,a4,2
     3c0:	00f12e23          	sw	a5,28(sp)
     3c4:	1a079863          	bnez	a5,574 <_ntoa_format+0x1ec>
D:\Files\Pango\RISCV-SOC\RISC-V\rtl\SparrowRV\bsp\bsp_app\obj/../lib/driver/src/printf.c:255
    if (width && (flags & FLAGS_ZEROPAD) && (negative || (flags & (FLAGS_PLUS | FLAGS_SPACE)))) {
     3c8:	03812783          	lw	a5,56(sp)
     3cc:	02078a63          	beqz	a5,400 <_ntoa_format+0x78>
D:\Files\Pango\RISCV-SOC\RISC-V\rtl\SparrowRV\bsp\bsp_app\obj/../lib/driver/src/printf.c:255 (discriminator 1)
     3d0:	00177793          	andi	a5,a4,1
     3d4:	2c078c63          	beqz	a5,6ac <_ntoa_format+0x324>
D:\Files\Pango\RISCV-SOC\RISC-V\rtl\SparrowRV\bsp\bsp_app\obj/../lib/driver/src/printf.c:255 (discriminator 2)
     3d8:	00051663          	bnez	a0,3e4 <_ntoa_format+0x5c>
D:\Files\Pango\RISCV-SOC\RISC-V\rtl\SparrowRV\bsp\bsp_app\obj/../lib/driver/src/printf.c:255 (discriminator 3)
     3dc:	00c77793          	andi	a5,a4,12
     3e0:	00078863          	beqz	a5,3f0 <_ntoa_format+0x68>
D:\Files\Pango\RISCV-SOC\RISC-V\rtl\SparrowRV\bsp\bsp_app\obj/../lib/driver/src/printf.c:256
      width--;
     3e4:	03812783          	lw	a5,56(sp)
     3e8:	fff78793          	addi	a5,a5,-1
     3ec:	02f12c23          	sw	a5,56(sp)
D:\Files\Pango\RISCV-SOC\RISC-V\rtl\SparrowRV\bsp\bsp_app\obj/../lib/driver/src/printf.c:258
    }
    while ((len < prec) && (len < PRINTF_NTOA_BUFFER_SIZE)) {
     3f0:	04d4f263          	bgeu	s1,a3,434 <_ntoa_format+0xac>
     3f4:	01f00793          	li	a5,31
     3f8:	0097fa63          	bgeu	a5,s1,40c <_ntoa_format+0x84>
     3fc:	0380006f          	j	434 <_ntoa_format+0xac>
     400:	02d4f663          	bgeu	s1,a3,42c <_ntoa_format+0xa4>
     404:	01f00793          	li	a5,31
     408:	0297e263          	bltu	a5,s1,42c <_ntoa_format+0xa4>
D:\Files\Pango\RISCV-SOC\RISC-V\rtl\SparrowRV\bsp\bsp_app\obj/../lib/driver/src/printf.c:259
      buf[len++] = '0';
     40c:	03000613          	li	a2,48
D:\Files\Pango\RISCV-SOC\RISC-V\rtl\SparrowRV\bsp\bsp_app\obj/../lib/driver/src/printf.c:258
    while ((len < prec) && (len < PRINTF_NTOA_BUFFER_SIZE)) {
     410:	02000593          	li	a1,32
     414:	01012303          	lw	t1,16(sp)
D:\Files\Pango\RISCV-SOC\RISC-V\rtl\SparrowRV\bsp\bsp_app\obj/../lib/driver/src/printf.c:259
      buf[len++] = '0';
     418:	00148493          	addi	s1,s1,1
     41c:	009307b3          	add	a5,t1,s1
     420:	fec78fa3          	sb	a2,-1(a5)
D:\Files\Pango\RISCV-SOC\RISC-V\rtl\SparrowRV\bsp\bsp_app\obj/../lib/driver/src/printf.c:258
    while ((len < prec) && (len < PRINTF_NTOA_BUFFER_SIZE)) {
     424:	00d4f463          	bgeu	s1,a3,42c <_ntoa_format+0xa4>
D:\Files\Pango\RISCV-SOC\RISC-V\rtl\SparrowRV\bsp\bsp_app\obj/../lib/driver/src/printf.c:258 (discriminator 1)
     428:	feb498e3          	bne	s1,a1,418 <_ntoa_format+0x90>
D:\Files\Pango\RISCV-SOC\RISC-V\rtl\SparrowRV\bsp\bsp_app\obj/../lib/driver/src/printf.c:261
    }
    while ((flags & FLAGS_ZEROPAD) && (len < width) && (len < PRINTF_NTOA_BUFFER_SIZE)) {
     42c:	00177793          	andi	a5,a4,1
     430:	14078263          	beqz	a5,574 <_ntoa_format+0x1ec>
     434:	03812783          	lw	a5,56(sp)
     438:	12f4fe63          	bgeu	s1,a5,574 <_ntoa_format+0x1ec>
     43c:	01f00793          	li	a5,31
D:\Files\Pango\RISCV-SOC\RISC-V\rtl\SparrowRV\bsp\bsp_app\obj/../lib/driver/src/printf.c:262
      buf[len++] = '0';
     440:	03000613          	li	a2,48
D:\Files\Pango\RISCV-SOC\RISC-V\rtl\SparrowRV\bsp\bsp_app\obj/../lib/driver/src/printf.c:261
    while ((flags & FLAGS_ZEROPAD) && (len < width) && (len < PRINTF_NTOA_BUFFER_SIZE)) {
     444:	02000593          	li	a1,32
     448:	0297e063          	bltu	a5,s1,468 <_ntoa_format+0xe0>
     44c:	01012303          	lw	t1,16(sp)
     450:	03812283          	lw	t0,56(sp)
D:\Files\Pango\RISCV-SOC\RISC-V\rtl\SparrowRV\bsp\bsp_app\obj/../lib/driver/src/printf.c:262
      buf[len++] = '0';
     454:	00148493          	addi	s1,s1,1
     458:	009307b3          	add	a5,t1,s1
     45c:	fec78fa3          	sb	a2,-1(a5)
D:\Files\Pango\RISCV-SOC\RISC-V\rtl\SparrowRV\bsp\bsp_app\obj/../lib/driver/src/printf.c:261
    while ((flags & FLAGS_ZEROPAD) && (len < width) && (len < PRINTF_NTOA_BUFFER_SIZE)) {
     460:	10548863          	beq	s1,t0,570 <_ntoa_format+0x1e8>
D:\Files\Pango\RISCV-SOC\RISC-V\rtl\SparrowRV\bsp\bsp_app\obj/../lib/driver/src/printf.c:261 (discriminator 2)
     464:	feb498e3          	bne	s1,a1,454 <_ntoa_format+0xcc>
D:\Files\Pango\RISCV-SOC\RISC-V\rtl\SparrowRV\bsp\bsp_app\obj/../lib/driver/src/printf.c:267
    }
  }

  // handle hash
  if (flags & FLAGS_HASH) {
     468:	01077793          	andi	a5,a4,16
     46c:	10079863          	bnez	a5,57c <_ntoa_format+0x1f4>
_out_rev():
D:\Files\Pango\RISCV-SOC\RISC-V\rtl\SparrowRV\bsp\bsp_app\obj/../lib/driver/src/printf.c:228
  if (!(flags & FLAGS_LEFT) && !(flags & FLAGS_ZEROPAD)) {
     470:	00377713          	andi	a4,a4,3
     474:	01812783          	lw	a5,24(sp)
     478:	00f12623          	sw	a5,12(sp)
     47c:	04071663          	bnez	a4,4c8 <_ntoa_format+0x140>
D:\Files\Pango\RISCV-SOC\RISC-V\rtl\SparrowRV\bsp\bsp_app\obj/../lib/driver/src/printf.c:229
    for (size_t i = len; i < width; i++) {
     480:	03812783          	lw	a5,56(sp)
     484:	04f4f263          	bgeu	s1,a5,4c8 <_ntoa_format+0x140>
     488:	01812603          	lw	a2,24(sp)
     48c:	03812783          	lw	a5,56(sp)
     490:	00f607b3          	add	a5,a2,a5
     494:	409787b3          	sub	a5,a5,s1
     498:	00f12623          	sw	a5,12(sp)
D:\Files\Pango\RISCV-SOC\RISC-V\rtl\SparrowRV\bsp\bsp_app\obj/../lib/driver/src/printf.c:228
  if (!(flags & FLAGS_LEFT) && !(flags & FLAGS_ZEROPAD)) {
     49c:	00912a23          	sw	s1,20(sp)
     4a0:	00812483          	lw	s1,8(sp)
D:\Files\Pango\RISCV-SOC\RISC-V\rtl\SparrowRV\bsp\bsp_app\obj/../lib/driver/src/printf.c:230
      out(' ', buffer, idx++, maxlen);
     4a4:	00160413          	addi	s0,a2,1
     4a8:	00412683          	lw	a3,4(sp)
     4ac:	00012583          	lw	a1,0(sp)
     4b0:	02000513          	li	a0,32
     4b4:	000480e7          	jalr	s1
     4b8:	00040613          	mv	a2,s0
D:\Files\Pango\RISCV-SOC\RISC-V\rtl\SparrowRV\bsp\bsp_app\obj/../lib/driver/src/printf.c:229
    for (size_t i = len; i < width; i++) {
     4bc:	00c12783          	lw	a5,12(sp)
     4c0:	fef412e3          	bne	s0,a5,4a4 <_ntoa_format+0x11c>
     4c4:	01412483          	lw	s1,20(sp)
D:\Files\Pango\RISCV-SOC\RISC-V\rtl\SparrowRV\bsp\bsp_app\obj/../lib/driver/src/printf.c:235
  while (len) {
     4c8:	04048463          	beqz	s1,510 <_ntoa_format+0x188>
     4cc:	01012783          	lw	a5,16(sp)
     4d0:	00978433          	add	s0,a5,s1
     4d4:	00c12703          	lw	a4,12(sp)
     4d8:	00e48733          	add	a4,s1,a4
     4dc:	00e12a23          	sw	a4,20(sp)
D:\Files\Pango\RISCV-SOC\RISC-V\rtl\SparrowRV\bsp\bsp_app\obj/../lib/driver/src/printf.c:236
    out(buf[--len], buffer, idx++, maxlen);
     4e0:	00e784b3          	add	s1,a5,a4
     4e4:	01412783          	lw	a5,20(sp)
     4e8:	00f12623          	sw	a5,12(sp)
     4ec:	00412683          	lw	a3,4(sp)
     4f0:	40848633          	sub	a2,s1,s0
     4f4:	00012583          	lw	a1,0(sp)
     4f8:	fff44503          	lbu	a0,-1(s0)
     4fc:	00812783          	lw	a5,8(sp)
     500:	000780e7          	jalr	a5
     504:	fff40413          	addi	s0,s0,-1
D:\Files\Pango\RISCV-SOC\RISC-V\rtl\SparrowRV\bsp\bsp_app\obj/../lib/driver/src/printf.c:235
  while (len) {
     508:	01012783          	lw	a5,16(sp)
     50c:	fcf41ce3          	bne	s0,a5,4e4 <_ntoa_format+0x15c>
D:\Files\Pango\RISCV-SOC\RISC-V\rtl\SparrowRV\bsp\bsp_app\obj/../lib/driver/src/printf.c:240
  if (flags & FLAGS_LEFT) {
     510:	01c12783          	lw	a5,28(sp)
     514:	04078263          	beqz	a5,558 <_ntoa_format+0x1d0>
D:\Files\Pango\RISCV-SOC\RISC-V\rtl\SparrowRV\bsp\bsp_app\obj/../lib/driver/src/printf.c:241
    while (idx - start_idx < width) {
     518:	00c12603          	lw	a2,12(sp)
     51c:	01812783          	lw	a5,24(sp)
     520:	40f60433          	sub	s0,a2,a5
     524:	03812783          	lw	a5,56(sp)
     528:	02f47863          	bgeu	s0,a5,558 <_ntoa_format+0x1d0>
D:\Files\Pango\RISCV-SOC\RISC-V\rtl\SparrowRV\bsp\bsp_app\obj/../lib/driver/src/printf.c:242
      out(' ', buffer, idx++, maxlen);
     52c:	00160493          	addi	s1,a2,1
     530:	00412683          	lw	a3,4(sp)
     534:	00012583          	lw	a1,0(sp)
     538:	02000513          	li	a0,32
     53c:	00812783          	lw	a5,8(sp)
     540:	000780e7          	jalr	a5
     544:	00140413          	addi	s0,s0,1
     548:	00048613          	mv	a2,s1
D:\Files\Pango\RISCV-SOC\RISC-V\rtl\SparrowRV\bsp\bsp_app\obj/../lib/driver/src/printf.c:241
    while (idx - start_idx < width) {
     54c:	03812783          	lw	a5,56(sp)
     550:	fcf46ee3          	bltu	s0,a5,52c <_ntoa_format+0x1a4>
D:\Files\Pango\RISCV-SOC\RISC-V\rtl\SparrowRV\bsp\bsp_app\obj/../lib/driver/src/printf.c:242
      out(' ', buffer, idx++, maxlen);
     554:	00912623          	sw	s1,12(sp)
_ntoa_format():
D:\Files\Pango\RISCV-SOC\RISC-V\rtl\SparrowRV\bsp\bsp_app\obj/../lib/driver/src/printf.c:301
      buf[len++] = ' ';
    }
  }

  return _out_rev(out, buffer, idx, maxlen, buf, len, width, flags);
}
     558:	00c12503          	lw	a0,12(sp)
     55c:	02812083          	lw	ra,40(sp)
     560:	02412403          	lw	s0,36(sp)
     564:	02012483          	lw	s1,32(sp)
     568:	02c10113          	addi	sp,sp,44
     56c:	00008067          	ret
D:\Files\Pango\RISCV-SOC\RISC-V\rtl\SparrowRV\bsp\bsp_app\obj/../lib/driver/src/printf.c:262
      buf[len++] = '0';
     570:	03812483          	lw	s1,56(sp)
D:\Files\Pango\RISCV-SOC\RISC-V\rtl\SparrowRV\bsp\bsp_app\obj/../lib/driver/src/printf.c:267
  if (flags & FLAGS_HASH) {
     574:	01077793          	andi	a5,a4,16
     578:	04078863          	beqz	a5,5c8 <_ntoa_format+0x240>
D:\Files\Pango\RISCV-SOC\RISC-V\rtl\SparrowRV\bsp\bsp_app\obj/../lib/driver/src/printf.c:268
    if (!(flags & FLAGS_PRECISION) && len && ((len == prec) || (len == width))) {
     57c:	40077793          	andi	a5,a4,1024
     580:	00079a63          	bnez	a5,594 <_ntoa_format+0x20c>
D:\Files\Pango\RISCV-SOC\RISC-V\rtl\SparrowRV\bsp\bsp_app\obj/../lib/driver/src/printf.c:268 (discriminator 1)
     584:	00048863          	beqz	s1,594 <_ntoa_format+0x20c>
D:\Files\Pango\RISCV-SOC\RISC-V\rtl\SparrowRV\bsp\bsp_app\obj/../lib/driver/src/printf.c:268 (discriminator 2)
     588:	06968a63          	beq	a3,s1,5fc <_ntoa_format+0x274>
D:\Files\Pango\RISCV-SOC\RISC-V\rtl\SparrowRV\bsp\bsp_app\obj/../lib/driver/src/printf.c:268 (discriminator 3)
     58c:	03812783          	lw	a5,56(sp)
     590:	06f48663          	beq	s1,a5,5fc <_ntoa_format+0x274>
D:\Files\Pango\RISCV-SOC\RISC-V\rtl\SparrowRV\bsp\bsp_app\obj/../lib/driver/src/printf.c:274
    if ((base == 16U) && !(flags & FLAGS_UPPERCASE) && (len < PRINTF_NTOA_BUFFER_SIZE)) {
     594:	01000793          	li	a5,16
     598:	03012683          	lw	a3,48(sp)
     59c:	08f68463          	beq	a3,a5,624 <_ntoa_format+0x29c>
D:\Files\Pango\RISCV-SOC\RISC-V\rtl\SparrowRV\bsp\bsp_app\obj/../lib/driver/src/printf.c:280
    else if ((base == 2U) && (len < PRINTF_NTOA_BUFFER_SIZE)) {
     5a0:	00200793          	li	a5,2
     5a4:	03012683          	lw	a3,48(sp)
     5a8:	0af68263          	beq	a3,a5,64c <_ntoa_format+0x2c4>
D:\Files\Pango\RISCV-SOC\RISC-V\rtl\SparrowRV\bsp\bsp_app\obj/../lib/driver/src/printf.c:283
    if (len < PRINTF_NTOA_BUFFER_SIZE) {
     5ac:	01f00793          	li	a5,31
     5b0:	ec97e0e3          	bltu	a5,s1,470 <_ntoa_format+0xe8>
D:\Files\Pango\RISCV-SOC\RISC-V\rtl\SparrowRV\bsp\bsp_app\obj/../lib/driver/src/printf.c:284
      buf[len++] = '0';
     5b4:	01012783          	lw	a5,16(sp)
     5b8:	009787b3          	add	a5,a5,s1
     5bc:	03000693          	li	a3,48
     5c0:	00d78023          	sb	a3,0(a5)
     5c4:	00148493          	addi	s1,s1,1
D:\Files\Pango\RISCV-SOC\RISC-V\rtl\SparrowRV\bsp\bsp_app\obj/../lib/driver/src/printf.c:288
  if (len < PRINTF_NTOA_BUFFER_SIZE) {
     5c8:	01f00793          	li	a5,31
     5cc:	ea97e2e3          	bltu	a5,s1,470 <_ntoa_format+0xe8>
D:\Files\Pango\RISCV-SOC\RISC-V\rtl\SparrowRV\bsp\bsp_app\obj/../lib/driver/src/printf.c:289
    if (negative) {
     5d0:	08050e63          	beqz	a0,66c <_ntoa_format+0x2e4>
D:\Files\Pango\RISCV-SOC\RISC-V\rtl\SparrowRV\bsp\bsp_app\obj/../lib/driver/src/printf.c:290
      buf[len++] = '-';
     5d4:	01012783          	lw	a5,16(sp)
     5d8:	009787b3          	add	a5,a5,s1
     5dc:	02d00693          	li	a3,45
     5e0:	00d78023          	sb	a3,0(a5)
     5e4:	00148493          	addi	s1,s1,1
_out_rev():
D:\Files\Pango\RISCV-SOC\RISC-V\rtl\SparrowRV\bsp\bsp_app\obj/../lib/driver/src/printf.c:228
  if (!(flags & FLAGS_LEFT) && !(flags & FLAGS_ZEROPAD)) {
     5e8:	00377713          	andi	a4,a4,3
     5ec:	0c070863          	beqz	a4,6bc <_ntoa_format+0x334>
     5f0:	01812783          	lw	a5,24(sp)
     5f4:	00f12623          	sw	a5,12(sp)
     5f8:	ed5ff06f          	j	4cc <_ntoa_format+0x144>
_ntoa_format():
D:\Files\Pango\RISCV-SOC\RISC-V\rtl\SparrowRV\bsp\bsp_app\obj/../lib/driver/src/printf.c:269
      len--;
     5fc:	fff48793          	addi	a5,s1,-1
D:\Files\Pango\RISCV-SOC\RISC-V\rtl\SparrowRV\bsp\bsp_app\obj/../lib/driver/src/printf.c:270
      if (len && (base == 16U)) {
     600:	00078e63          	beqz	a5,61c <_ntoa_format+0x294>
D:\Files\Pango\RISCV-SOC\RISC-V\rtl\SparrowRV\bsp\bsp_app\obj/../lib/driver/src/printf.c:270 (discriminator 1)
     604:	01000693          	li	a3,16
     608:	03012603          	lw	a2,48(sp)
D:\Files\Pango\RISCV-SOC\RISC-V\rtl\SparrowRV\bsp\bsp_app\obj/../lib/driver/src/printf.c:271 (discriminator 1)
        len--;
     60c:	ffe48493          	addi	s1,s1,-2
D:\Files\Pango\RISCV-SOC\RISC-V\rtl\SparrowRV\bsp\bsp_app\obj/../lib/driver/src/printf.c:270 (discriminator 1)
      if (len && (base == 16U)) {
     610:	00d60a63          	beq	a2,a3,624 <_ntoa_format+0x29c>
D:\Files\Pango\RISCV-SOC\RISC-V\rtl\SparrowRV\bsp\bsp_app\obj/../lib/driver/src/printf.c:269
      len--;
     614:	00078493          	mv	s1,a5
     618:	f89ff06f          	j	5a0 <_ntoa_format+0x218>
     61c:	00078493          	mv	s1,a5
     620:	f75ff06f          	j	594 <_ntoa_format+0x20c>
D:\Files\Pango\RISCV-SOC\RISC-V\rtl\SparrowRV\bsp\bsp_app\obj/../lib/driver/src/printf.c:274 (discriminator 1)
    if ((base == 16U) && !(flags & FLAGS_UPPERCASE) && (len < PRINTF_NTOA_BUFFER_SIZE)) {
     624:	02077793          	andi	a5,a4,32
     628:	0a079463          	bnez	a5,6d0 <_ntoa_format+0x348>
D:\Files\Pango\RISCV-SOC\RISC-V\rtl\SparrowRV\bsp\bsp_app\obj/../lib/driver/src/printf.c:274 (discriminator 2)
     62c:	01f00793          	li	a5,31
     630:	f697eee3          	bltu	a5,s1,5ac <_ntoa_format+0x224>
D:\Files\Pango\RISCV-SOC\RISC-V\rtl\SparrowRV\bsp\bsp_app\obj/../lib/driver/src/printf.c:275
      buf[len++] = 'x';
     634:	01012783          	lw	a5,16(sp)
     638:	009787b3          	add	a5,a5,s1
     63c:	07800693          	li	a3,120
     640:	00d78023          	sb	a3,0(a5)
     644:	00148493          	addi	s1,s1,1
     648:	f65ff06f          	j	5ac <_ntoa_format+0x224>
D:\Files\Pango\RISCV-SOC\RISC-V\rtl\SparrowRV\bsp\bsp_app\obj/../lib/driver/src/printf.c:280 (discriminator 1)
    else if ((base == 2U) && (len < PRINTF_NTOA_BUFFER_SIZE)) {
     64c:	01f00793          	li	a5,31
     650:	e297e0e3          	bltu	a5,s1,470 <_ntoa_format+0xe8>
D:\Files\Pango\RISCV-SOC\RISC-V\rtl\SparrowRV\bsp\bsp_app\obj/../lib/driver/src/printf.c:281
      buf[len++] = 'b';
     654:	01012783          	lw	a5,16(sp)
     658:	009787b3          	add	a5,a5,s1
     65c:	06200693          	li	a3,98
     660:	00d78023          	sb	a3,0(a5)
     664:	00148493          	addi	s1,s1,1
     668:	f45ff06f          	j	5ac <_ntoa_format+0x224>
D:\Files\Pango\RISCV-SOC\RISC-V\rtl\SparrowRV\bsp\bsp_app\obj/../lib/driver/src/printf.c:292
    else if (flags & FLAGS_PLUS) {
     66c:	00477793          	andi	a5,a4,4
     670:	00078e63          	beqz	a5,68c <_ntoa_format+0x304>
D:\Files\Pango\RISCV-SOC\RISC-V\rtl\SparrowRV\bsp\bsp_app\obj/../lib/driver/src/printf.c:293
      buf[len++] = '+';  // ignore the space if the '+' exists
     674:	01012783          	lw	a5,16(sp)
     678:	009787b3          	add	a5,a5,s1
     67c:	02b00693          	li	a3,43
     680:	00d78023          	sb	a3,0(a5)
     684:	00148493          	addi	s1,s1,1
     688:	f61ff06f          	j	5e8 <_ntoa_format+0x260>
D:\Files\Pango\RISCV-SOC\RISC-V\rtl\SparrowRV\bsp\bsp_app\obj/../lib/driver/src/printf.c:295
    else if (flags & FLAGS_SPACE) {
     68c:	00877793          	andi	a5,a4,8
     690:	de0780e3          	beqz	a5,470 <_ntoa_format+0xe8>
D:\Files\Pango\RISCV-SOC\RISC-V\rtl\SparrowRV\bsp\bsp_app\obj/../lib/driver/src/printf.c:296
      buf[len++] = ' ';
     694:	01012783          	lw	a5,16(sp)
     698:	009787b3          	add	a5,a5,s1
     69c:	02000693          	li	a3,32
     6a0:	00d78023          	sb	a3,0(a5)
     6a4:	00148493          	addi	s1,s1,1
     6a8:	f41ff06f          	j	5e8 <_ntoa_format+0x260>
D:\Files\Pango\RISCV-SOC\RISC-V\rtl\SparrowRV\bsp\bsp_app\obj/../lib/driver/src/printf.c:258
    while ((len < prec) && (len < PRINTF_NTOA_BUFFER_SIZE)) {
     6ac:	ecd4f4e3          	bgeu	s1,a3,574 <_ntoa_format+0x1ec>
     6b0:	01f00793          	li	a5,31
     6b4:	d497fce3          	bgeu	a5,s1,40c <_ntoa_format+0x84>
     6b8:	ebdff06f          	j	574 <_ntoa_format+0x1ec>
_out_rev():
D:\Files\Pango\RISCV-SOC\RISC-V\rtl\SparrowRV\bsp\bsp_app\obj/../lib/driver/src/printf.c:229
    for (size_t i = len; i < width; i++) {
     6bc:	03812783          	lw	a5,56(sp)
     6c0:	dcf4e4e3          	bltu	s1,a5,488 <_ntoa_format+0x100>
     6c4:	01812783          	lw	a5,24(sp)
     6c8:	00f12623          	sw	a5,12(sp)
     6cc:	e01ff06f          	j	4cc <_ntoa_format+0x144>
_ntoa_format():
D:\Files\Pango\RISCV-SOC\RISC-V\rtl\SparrowRV\bsp\bsp_app\obj/../lib/driver/src/printf.c:277
    else if ((base == 16U) && (flags & FLAGS_UPPERCASE) && (len < PRINTF_NTOA_BUFFER_SIZE)) {
     6d0:	01f00793          	li	a5,31
     6d4:	d897eee3          	bltu	a5,s1,470 <_ntoa_format+0xe8>
D:\Files\Pango\RISCV-SOC\RISC-V\rtl\SparrowRV\bsp\bsp_app\obj/../lib/driver/src/printf.c:278
      buf[len++] = 'X';
     6d8:	01012783          	lw	a5,16(sp)
     6dc:	009787b3          	add	a5,a5,s1
     6e0:	05800693          	li	a3,88
     6e4:	00d78023          	sb	a3,0(a5)
     6e8:	00148493          	addi	s1,s1,1
     6ec:	ec1ff06f          	j	5ac <_ntoa_format+0x224>

000006f0 <_ntoa_long>:
_ntoa_long():
D:\Files\Pango\RISCV-SOC\RISC-V\rtl\SparrowRV\bsp\bsp_app\obj/../lib/driver/src/printf.c:306


// internal itoa for 'long' type
static size_t _ntoa_long(out_fct_type out, char* buffer, size_t idx, size_t maxlen, unsigned long value, bool negative, unsigned long base, unsigned int prec, unsigned int width, unsigned int flags)
{
     6f0:	fb810113          	addi	sp,sp,-72
     6f4:	04112223          	sw	ra,68(sp)
     6f8:	04812023          	sw	s0,64(sp)
     6fc:	02912e23          	sw	s1,60(sp)
     700:	00a12a23          	sw	a0,20(sp)
     704:	00f12c23          	sw	a5,24(sp)
     708:	04812303          	lw	t1,72(sp)
     70c:	05412483          	lw	s1,84(sp)
D:\Files\Pango\RISCV-SOC\RISC-V\rtl\SparrowRV\bsp\bsp_app\obj/../lib/driver/src/printf.c:311
  char buf[PRINTF_NTOA_BUFFER_SIZE];
  size_t len = 0U;

  // no hash for 0 values
  if (!value) {
     710:	00071a63          	bnez	a4,724 <_ntoa_long+0x34>
D:\Files\Pango\RISCV-SOC\RISC-V\rtl\SparrowRV\bsp\bsp_app\obj/../lib/driver/src/printf.c:312
    flags &= ~FLAGS_HASH;
     714:	fef4f793          	andi	a5,s1,-17
D:\Files\Pango\RISCV-SOC\RISC-V\rtl\SparrowRV\bsp\bsp_app\obj/../lib/driver/src/printf.c:316
  }

  // write if precision != 0 and value is != 0
  if (!(flags & FLAGS_PRECISION) || value) {
     718:	4004f513          	andi	a0,s1,1024
     71c:	06051863          	bnez	a0,78c <_ntoa_long+0x9c>
D:\Files\Pango\RISCV-SOC\RISC-V\rtl\SparrowRV\bsp\bsp_app\obj/../lib/driver/src/printf.c:312
    flags &= ~FLAGS_HASH;
     720:	00078493          	mv	s1,a5
D:\Files\Pango\RISCV-SOC\RISC-V\rtl\SparrowRV\bsp\bsp_app\obj/../lib/driver/src/printf.c:319
    do {
      const char digit = (char)(value % base);
      buf[len++] = digit < 10 ? '0' + digit : (flags & FLAGS_UPPERCASE ? 'A' : 'a') + digit - 10;
     724:	0204f793          	andi	a5,s1,32
     728:	06100413          	li	s0,97
     72c:	00078463          	beqz	a5,734 <_ntoa_long+0x44>
     730:	04100413          	li	s0,65
     734:	0ff47413          	andi	s0,s0,255
     738:	00000793          	li	a5,0
     73c:	00900393          	li	t2,9
     740:	ff640413          	addi	s0,s0,-10
D:\Files\Pango\RISCV-SOC\RISC-V\rtl\SparrowRV\bsp\bsp_app\obj/../lib/driver/src/printf.c:321
      value /= base;
    } while (value && (len < PRINTF_NTOA_BUFFER_SIZE));
     744:	02000093          	li	ra,32
     748:	02c0006f          	j	774 <_ntoa_long+0x84>
D:\Files\Pango\RISCV-SOC\RISC-V\rtl\SparrowRV\bsp\bsp_app\obj/../lib/driver/src/printf.c:319 (discriminator 7)
      buf[len++] = digit < 10 ? '0' + digit : (flags & FLAGS_UPPERCASE ? 'A' : 'a') + digit - 10;
     74c:	00850533          	add	a0,a0,s0
     750:	0ff57513          	andi	a0,a0,255
D:\Files\Pango\RISCV-SOC\RISC-V\rtl\SparrowRV\bsp\bsp_app\obj/../lib/driver/src/printf.c:319 (discriminator 8)
     754:	00178793          	addi	a5,a5,1
     758:	01c10293          	addi	t0,sp,28
     75c:	00f282b3          	add	t0,t0,a5
     760:	fea28fa3          	sb	a0,-1(t0)
D:\Files\Pango\RISCV-SOC\RISC-V\rtl\SparrowRV\bsp\bsp_app\obj/../lib/driver/src/printf.c:320 (discriminator 8)
      value /= base;
     764:	02675533          	divu	a0,a4,t1
D:\Files\Pango\RISCV-SOC\RISC-V\rtl\SparrowRV\bsp\bsp_app\obj/../lib/driver/src/printf.c:321 (discriminator 8)
    } while (value && (len < PRINTF_NTOA_BUFFER_SIZE));
     768:	02676663          	bltu	a4,t1,794 <_ntoa_long+0xa4>
D:\Files\Pango\RISCV-SOC\RISC-V\rtl\SparrowRV\bsp\bsp_app\obj/../lib/driver/src/printf.c:321 (discriminator 1)
     76c:	02178463          	beq	a5,ra,794 <_ntoa_long+0xa4>
D:\Files\Pango\RISCV-SOC\RISC-V\rtl\SparrowRV\bsp\bsp_app\obj/../lib/driver/src/printf.c:320
      value /= base;
     770:	00050713          	mv	a4,a0
D:\Files\Pango\RISCV-SOC\RISC-V\rtl\SparrowRV\bsp\bsp_app\obj/../lib/driver/src/printf.c:318
      const char digit = (char)(value % base);
     774:	02677533          	remu	a0,a4,t1
     778:	0ff57513          	andi	a0,a0,255
D:\Files\Pango\RISCV-SOC\RISC-V\rtl\SparrowRV\bsp\bsp_app\obj/../lib/driver/src/printf.c:319
      buf[len++] = digit < 10 ? '0' + digit : (flags & FLAGS_UPPERCASE ? 'A' : 'a') + digit - 10;
     77c:	fca3e8e3          	bltu	t2,a0,74c <_ntoa_long+0x5c>
D:\Files\Pango\RISCV-SOC\RISC-V\rtl\SparrowRV\bsp\bsp_app\obj/../lib/driver/src/printf.c:319 (discriminator 1)
     780:	03050513          	addi	a0,a0,48
     784:	0ff57513          	andi	a0,a0,255
     788:	fcdff06f          	j	754 <_ntoa_long+0x64>
D:\Files\Pango\RISCV-SOC\RISC-V\rtl\SparrowRV\bsp\bsp_app\obj/../lib/driver/src/printf.c:312
    flags &= ~FLAGS_HASH;
     78c:	00078493          	mv	s1,a5
D:\Files\Pango\RISCV-SOC\RISC-V\rtl\SparrowRV\bsp\bsp_app\obj/../lib/driver/src/printf.c:308
  size_t len = 0U;
     790:	00000793          	li	a5,0
D:\Files\Pango\RISCV-SOC\RISC-V\rtl\SparrowRV\bsp\bsp_app\obj/../lib/driver/src/printf.c:324
  }

  return _ntoa_format(out, buffer, idx, maxlen, buf, len, negative, (unsigned int)base, prec, width, flags);
     794:	00912823          	sw	s1,16(sp)
     798:	05012703          	lw	a4,80(sp)
     79c:	00e12623          	sw	a4,12(sp)
     7a0:	04c12703          	lw	a4,76(sp)
     7a4:	00e12423          	sw	a4,8(sp)
     7a8:	00612223          	sw	t1,4(sp)
     7ac:	01812703          	lw	a4,24(sp)
     7b0:	00e12023          	sw	a4,0(sp)
     7b4:	01c10713          	addi	a4,sp,28
     7b8:	01412503          	lw	a0,20(sp)
     7bc:	bcdff0ef          	jal	ra,388 <_ntoa_format>
D:\Files\Pango\RISCV-SOC\RISC-V\rtl\SparrowRV\bsp\bsp_app\obj/../lib/driver/src/printf.c:325
}
     7c0:	04412083          	lw	ra,68(sp)
     7c4:	04012403          	lw	s0,64(sp)
     7c8:	03c12483          	lw	s1,60(sp)
     7cc:	04810113          	addi	sp,sp,72
     7d0:	00008067          	ret

000007d4 <_ntoa_long_long>:
_ntoa_long_long():
D:\Files\Pango\RISCV-SOC\RISC-V\rtl\SparrowRV\bsp\bsp_app\obj/../lib/driver/src/printf.c:331


// internal itoa for 'long long' type
#if defined(PRINTF_SUPPORT_LONG_LONG)
static size_t _ntoa_long_long(out_fct_type out, char* buffer, size_t idx, size_t maxlen, unsigned long long value, bool negative, unsigned long long base, unsigned int prec, unsigned int width, unsigned int flags)
{
     7d4:	fa010113          	addi	sp,sp,-96
     7d8:	04112e23          	sw	ra,92(sp)
     7dc:	04812c23          	sw	s0,88(sp)
     7e0:	04912a23          	sw	s1,84(sp)
     7e4:	02a12223          	sw	a0,36(sp)
     7e8:	02b12423          	sw	a1,40(sp)
     7ec:	02c12623          	sw	a2,44(sp)
     7f0:	02d12823          	sw	a3,48(sp)
     7f4:	00e12c23          	sw	a4,24(sp)
     7f8:	00078413          	mv	s0,a5
     7fc:	06412783          	lw	a5,100(sp)
     800:	00f12e23          	sw	a5,28(sp)
     804:	06812783          	lw	a5,104(sp)
     808:	00f12a23          	sw	a5,20(sp)
D:\Files\Pango\RISCV-SOC\RISC-V\rtl\SparrowRV\bsp\bsp_app\obj/../lib/driver/src/printf.c:336
  char buf[PRINTF_NTOA_BUFFER_SIZE];
  size_t len = 0U;

  // no hash for 0 values
  if (!value) {
     80c:	008767b3          	or	a5,a4,s0
     810:	00079e63          	bnez	a5,82c <_ntoa_long_long+0x58>
D:\Files\Pango\RISCV-SOC\RISC-V\rtl\SparrowRV\bsp\bsp_app\obj/../lib/driver/src/printf.c:337
    flags &= ~FLAGS_HASH;
     814:	07412783          	lw	a5,116(sp)
     818:	fef7f793          	andi	a5,a5,-17
D:\Files\Pango\RISCV-SOC\RISC-V\rtl\SparrowRV\bsp\bsp_app\obj/../lib/driver/src/printf.c:341
  }

  // write if precision != 0 and value is != 0
  if (!(flags & FLAGS_PRECISION) || value) {
     81c:	07412703          	lw	a4,116(sp)
     820:	40077713          	andi	a4,a4,1024
     824:	0a071c63          	bnez	a4,8dc <_ntoa_long_long+0x108>
D:\Files\Pango\RISCV-SOC\RISC-V\rtl\SparrowRV\bsp\bsp_app\obj/../lib/driver/src/printf.c:337
    flags &= ~FLAGS_HASH;
     828:	06f12a23          	sw	a5,116(sp)
D:\Files\Pango\RISCV-SOC\RISC-V\rtl\SparrowRV\bsp\bsp_app\obj/../lib/driver/src/printf.c:344
    do {
      const char digit = /*(char)*/(value % base);
      buf[len++] = digit < 10 ? '0' + digit : (flags & FLAGS_UPPERCASE ? 'A' : 'a') + digit - 10;
     82c:	07412783          	lw	a5,116(sp)
     830:	0207f713          	andi	a4,a5,32
     834:	06100793          	li	a5,97
     838:	00070463          	beqz	a4,840 <_ntoa_long_long+0x6c>
     83c:	04100793          	li	a5,65
     840:	0ff7f793          	andi	a5,a5,255
     844:	00000493          	li	s1,0
     848:	ff678793          	addi	a5,a5,-10
     84c:	02f12023          	sw	a5,32(sp)
     850:	0500006f          	j	8a0 <_ntoa_long_long+0xcc>
D:\Files\Pango\RISCV-SOC\RISC-V\rtl\SparrowRV\bsp\bsp_app\obj/../lib/driver/src/printf.c:344 (discriminator 7)
     854:	02012783          	lw	a5,32(sp)
     858:	00f50533          	add	a0,a0,a5
     85c:	0ff57513          	andi	a0,a0,255
D:\Files\Pango\RISCV-SOC\RISC-V\rtl\SparrowRV\bsp\bsp_app\obj/../lib/driver/src/printf.c:344 (discriminator 8)
     860:	00148493          	addi	s1,s1,1
     864:	03410793          	addi	a5,sp,52
     868:	009787b3          	add	a5,a5,s1
     86c:	fea78fa3          	sb	a0,-1(a5)
D:\Files\Pango\RISCV-SOC\RISC-V\rtl\SparrowRV\bsp\bsp_app\obj/../lib/driver/src/printf.c:345 (discriminator 8)
      value /= base;
     870:	01c12603          	lw	a2,28(sp)
     874:	01412683          	lw	a3,20(sp)
     878:	01812503          	lw	a0,24(sp)
     87c:	00040593          	mv	a1,s0
     880:	7c9000ef          	jal	ra,1848 <__udivdi3>
D:\Files\Pango\RISCV-SOC\RISC-V\rtl\SparrowRV\bsp\bsp_app\obj/../lib/driver/src/printf.c:346 (discriminator 8)
    } while (value && (len < PRINTF_NTOA_BUFFER_SIZE));
     884:	01412783          	lw	a5,20(sp)
     888:	04f46e63          	bltu	s0,a5,8e4 <_ntoa_long_long+0x110>
     88c:	04878063          	beq	a5,s0,8cc <_ntoa_long_long+0xf8>
D:\Files\Pango\RISCV-SOC\RISC-V\rtl\SparrowRV\bsp\bsp_app\obj/../lib/driver/src/printf.c:346 (discriminator 1)
     890:	02000793          	li	a5,32
     894:	04f48863          	beq	s1,a5,8e4 <_ntoa_long_long+0x110>
D:\Files\Pango\RISCV-SOC\RISC-V\rtl\SparrowRV\bsp\bsp_app\obj/../lib/driver/src/printf.c:345
      value /= base;
     898:	00a12c23          	sw	a0,24(sp)
     89c:	00058413          	mv	s0,a1
D:\Files\Pango\RISCV-SOC\RISC-V\rtl\SparrowRV\bsp\bsp_app\obj/../lib/driver/src/printf.c:343
      const char digit = /*(char)*/(value % base);
     8a0:	01c12603          	lw	a2,28(sp)
     8a4:	01412683          	lw	a3,20(sp)
     8a8:	01812503          	lw	a0,24(sp)
     8ac:	00040593          	mv	a1,s0
     8b0:	468010ef          	jal	ra,1d18 <__umoddi3>
     8b4:	0ff57513          	andi	a0,a0,255
D:\Files\Pango\RISCV-SOC\RISC-V\rtl\SparrowRV\bsp\bsp_app\obj/../lib/driver/src/printf.c:344
      buf[len++] = digit < 10 ? '0' + digit : (flags & FLAGS_UPPERCASE ? 'A' : 'a') + digit - 10;
     8b8:	00900793          	li	a5,9
     8bc:	f8a7ece3          	bltu	a5,a0,854 <_ntoa_long_long+0x80>
D:\Files\Pango\RISCV-SOC\RISC-V\rtl\SparrowRV\bsp\bsp_app\obj/../lib/driver/src/printf.c:344 (discriminator 1)
     8c0:	03050513          	addi	a0,a0,48
     8c4:	0ff57513          	andi	a0,a0,255
     8c8:	f99ff06f          	j	860 <_ntoa_long_long+0x8c>
D:\Files\Pango\RISCV-SOC\RISC-V\rtl\SparrowRV\bsp\bsp_app\obj/../lib/driver/src/printf.c:346 (discriminator 8)
    } while (value && (len < PRINTF_NTOA_BUFFER_SIZE));
     8cc:	01c12783          	lw	a5,28(sp)
     8d0:	01812703          	lw	a4,24(sp)
     8d4:	faf77ee3          	bgeu	a4,a5,890 <_ntoa_long_long+0xbc>
     8d8:	00c0006f          	j	8e4 <_ntoa_long_long+0x110>
D:\Files\Pango\RISCV-SOC\RISC-V\rtl\SparrowRV\bsp\bsp_app\obj/../lib/driver/src/printf.c:337
    flags &= ~FLAGS_HASH;
     8dc:	06f12a23          	sw	a5,116(sp)
D:\Files\Pango\RISCV-SOC\RISC-V\rtl\SparrowRV\bsp\bsp_app\obj/../lib/driver/src/printf.c:333
  size_t len = 0U;
     8e0:	00000493          	li	s1,0
D:\Files\Pango\RISCV-SOC\RISC-V\rtl\SparrowRV\bsp\bsp_app\obj/../lib/driver/src/printf.c:349
  }

  return _ntoa_format(out, buffer, idx, maxlen, buf, len, negative, (unsigned int)base, prec, width, flags);
     8e4:	07412783          	lw	a5,116(sp)
     8e8:	00f12823          	sw	a5,16(sp)
     8ec:	07012783          	lw	a5,112(sp)
     8f0:	00f12623          	sw	a5,12(sp)
     8f4:	06c12783          	lw	a5,108(sp)
     8f8:	00f12423          	sw	a5,8(sp)
     8fc:	01c12783          	lw	a5,28(sp)
     900:	00f12223          	sw	a5,4(sp)
     904:	06014783          	lbu	a5,96(sp)
     908:	00f12023          	sw	a5,0(sp)
     90c:	00048793          	mv	a5,s1
     910:	03410713          	addi	a4,sp,52
     914:	03012683          	lw	a3,48(sp)
     918:	02c12603          	lw	a2,44(sp)
     91c:	02812583          	lw	a1,40(sp)
     920:	02412503          	lw	a0,36(sp)
     924:	a65ff0ef          	jal	ra,388 <_ntoa_format>
D:\Files\Pango\RISCV-SOC\RISC-V\rtl\SparrowRV\bsp\bsp_app\obj/../lib/driver/src/printf.c:350
}
     928:	05c12083          	lw	ra,92(sp)
     92c:	05812403          	lw	s0,88(sp)
     930:	05412483          	lw	s1,84(sp)
     934:	06010113          	addi	sp,sp,96
     938:	00008067          	ret

0000093c <_vsnprintf>:
_vsnprintf():
D:\Files\Pango\RISCV-SOC\RISC-V\rtl\SparrowRV\bsp\bsp_app\obj/../lib/driver/src/printf.c:602
#endif  // PRINTF_SUPPORT_FLOAT


// internal vsnprintf
static int _vsnprintf(out_fct_type out, char* buffer, const size_t maxlen, const char* format, va_list va)
{
     93c:	fb010113          	addi	sp,sp,-80
     940:	04112623          	sw	ra,76(sp)
     944:	04812423          	sw	s0,72(sp)
     948:	04912223          	sw	s1,68(sp)
     94c:	02a12423          	sw	a0,40(sp)
     950:	02b12223          	sw	a1,36(sp)
     954:	02c12023          	sw	a2,32(sp)
     958:	00068413          	mv	s0,a3
     95c:	02e12623          	sw	a4,44(sp)
D:\Files\Pango\RISCV-SOC\RISC-V\rtl\SparrowRV\bsp\bsp_app\obj/../lib/driver/src/printf.c:606
  unsigned int flags, width, precision, n;
  size_t idx = 0U;

  if (!buffer) {
     960:	02058e63          	beqz	a1,99c <_vsnprintf+0x60>
D:\Files\Pango\RISCV-SOC\RISC-V\rtl\SparrowRV\bsp\bsp_app\obj/../lib/driver/src/printf.c:843
          while (l++ < width) {
            out(' ', buffer, idx++, maxlen);
          }
        }
        format++;
        break;
     964:	00012c23          	sw	zero,24(sp)
D:\Files\Pango\RISCV-SOC\RISC-V\rtl\SparrowRV\bsp\bsp_app\obj/../lib/driver/src/printf.c:611
  while (*format)
     968:	00044503          	lbu	a0,0(s0)
     96c:	080504e3          	beqz	a0,11f4 <__stack_size+0x1f4>
D:\Files\Pango\RISCV-SOC\RISC-V\rtl\SparrowRV\bsp\bsp_app\obj/../lib/driver/src/printf.c:614
    if (*format != '%') {
     970:	02500793          	li	a5,37
     974:	02f50c63          	beq	a0,a5,9ac <_vsnprintf+0x70>
D:\Files\Pango\RISCV-SOC\RISC-V\rtl\SparrowRV\bsp\bsp_app\obj/../lib/driver/src/printf.c:616
      out(*format, buffer, idx++, maxlen);
     978:	01812603          	lw	a2,24(sp)
     97c:	00160493          	addi	s1,a2,1
     980:	02012683          	lw	a3,32(sp)
     984:	02412583          	lw	a1,36(sp)
     988:	02812783          	lw	a5,40(sp)
     98c:	000780e7          	jalr	a5
D:\Files\Pango\RISCV-SOC\RISC-V\rtl\SparrowRV\bsp\bsp_app\obj/../lib/driver/src/printf.c:617
      format++;
     990:	00140413          	addi	s0,s0,1
D:\Files\Pango\RISCV-SOC\RISC-V\rtl\SparrowRV\bsp\bsp_app\obj/../lib/driver/src/printf.c:616
      out(*format, buffer, idx++, maxlen);
     994:	00912c23          	sw	s1,24(sp)
D:\Files\Pango\RISCV-SOC\RISC-V\rtl\SparrowRV\bsp\bsp_app\obj/../lib/driver/src/printf.c:618
      continue;
     998:	fd1ff06f          	j	968 <_vsnprintf+0x2c>
D:\Files\Pango\RISCV-SOC\RISC-V\rtl\SparrowRV\bsp\bsp_app\obj/../lib/driver/src/printf.c:608
    out = _out_null;
     99c:	000007b7          	lui	a5,0x0
     9a0:	38478793          	addi	a5,a5,900 # 384 <_out_null>
     9a4:	02f12423          	sw	a5,40(sp)
     9a8:	fbdff06f          	j	964 <_vsnprintf+0x28>
D:\Files\Pango\RISCV-SOC\RISC-V\rtl\SparrowRV\bsp\bsp_app\obj/../lib/driver/src/printf.c:622
      format++;
     9ac:	00140413          	addi	s0,s0,1
D:\Files\Pango\RISCV-SOC\RISC-V\rtl\SparrowRV\bsp\bsp_app\obj/../lib/driver/src/printf.c:626
    flags = 0U;
     9b0:	00000693          	li	a3,0
D:\Files\Pango\RISCV-SOC\RISC-V\rtl\SparrowRV\bsp\bsp_app\obj/../lib/driver/src/printf.c:628
      switch (*format) {
     9b4:	01000593          	li	a1,16
     9b8:	200007b7          	lui	a5,0x20000
     9bc:	00078513          	mv	a0,a5
     9c0:	0780006f          	j	a38 <_vsnprintf+0xfc>
     9c4:	00612e23          	sw	t1,28(sp)
_is_digit():
D:\Files\Pango\RISCV-SOC\RISC-V\rtl\SparrowRV\bsp\bsp_app\obj/../lib/driver/src/printf.c:207
  return (ch >= '0') && (ch <= '9');
     9c8:	fd070793          	addi	a5,a4,-48
_vsnprintf():
D:\Files\Pango\RISCV-SOC\RISC-V\rtl\SparrowRV\bsp\bsp_app\obj/../lib/driver/src/printf.c:640
    if (_is_digit(*format)) {
     9cc:	0ff7f793          	andi	a5,a5,255
     9d0:	00900613          	li	a2,9
     9d4:	0af67463          	bgeu	a2,a5,a7c <_vsnprintf+0x140>
D:\Files\Pango\RISCV-SOC\RISC-V\rtl\SparrowRV\bsp\bsp_app\obj/../lib/driver/src/printf.c:643
    else if (*format == '*') {
     9d8:	02a00793          	li	a5,42
D:\Files\Pango\RISCV-SOC\RISC-V\rtl\SparrowRV\bsp\bsp_app\obj/../lib/driver/src/printf.c:639
    width = 0U;
     9dc:	00000413          	li	s0,0
D:\Files\Pango\RISCV-SOC\RISC-V\rtl\SparrowRV\bsp\bsp_app\obj/../lib/driver/src/printf.c:643
    else if (*format == '*') {
     9e0:	0cf70c63          	beq	a4,a5,ab8 <_vsnprintf+0x17c>
D:\Files\Pango\RISCV-SOC\RISC-V\rtl\SparrowRV\bsp\bsp_app\obj/../lib/driver/src/printf.c:657
    if (*format == '.') {
     9e4:	01c12783          	lw	a5,28(sp)
     9e8:	0007c703          	lbu	a4,0(a5) # 20000000 <_sram_base_addr>
     9ec:	02e00793          	li	a5,46
D:\Files\Pango\RISCV-SOC\RISC-V\rtl\SparrowRV\bsp\bsp_app\obj/../lib/driver/src/printf.c:656
    precision = 0U;
     9f0:	00000493          	li	s1,0
D:\Files\Pango\RISCV-SOC\RISC-V\rtl\SparrowRV\bsp\bsp_app\obj/../lib/driver/src/printf.c:657
    if (*format == '.') {
     9f4:	0ef70c63          	beq	a4,a5,aec <_vsnprintf+0x1b0>
D:\Files\Pango\RISCV-SOC\RISC-V\rtl\SparrowRV\bsp\bsp_app\obj/../lib/driver/src/printf.c:671
    switch (*format) {
     9f8:	01c12783          	lw	a5,28(sp)
     9fc:	0007c783          	lbu	a5,0(a5)
     a00:	06a00713          	li	a4,106
     a04:	1ee78463          	beq	a5,a4,bec <_vsnprintf+0x2b0>
     a08:	16f77a63          	bgeu	a4,a5,b7c <_vsnprintf+0x240>
     a0c:	06c00713          	li	a4,108
     a10:	18e78a63          	beq	a5,a4,ba4 <_vsnprintf+0x268>
     a14:	07a00713          	li	a4,122
     a18:	1ee79263          	bne	a5,a4,bfc <_vsnprintf+0x2c0>
D:\Files\Pango\RISCV-SOC\RISC-V\rtl\SparrowRV\bsp\bsp_app\obj/../lib/driver/src/printf.c:699
        flags |= (sizeof(size_t) == sizeof(long) ? FLAGS_LONG : FLAGS_LONG_LONG);
     a1c:	1006e693          	ori	a3,a3,256
D:\Files\Pango\RISCV-SOC\RISC-V\rtl\SparrowRV\bsp\bsp_app\obj/../lib/driver/src/printf.c:700
        format++;
     a20:	01c12783          	lw	a5,28(sp)
     a24:	00178793          	addi	a5,a5,1
     a28:	00f12e23          	sw	a5,28(sp)
D:\Files\Pango\RISCV-SOC\RISC-V\rtl\SparrowRV\bsp\bsp_app\obj/../lib/driver/src/printf.c:701
        break;
     a2c:	1d00006f          	j	bfc <_vsnprintf+0x2c0>
D:\Files\Pango\RISCV-SOC\RISC-V\rtl\SparrowRV\bsp\bsp_app\obj/../lib/driver/src/printf.c:629
        case '0': flags |= FLAGS_ZEROPAD; format++; n = 1U; break;
     a30:	0016e693          	ori	a3,a3,1
     a34:	00140413          	addi	s0,s0,1
     a38:	00040313          	mv	t1,s0
D:\Files\Pango\RISCV-SOC\RISC-V\rtl\SparrowRV\bsp\bsp_app\obj/../lib/driver/src/printf.c:628
      switch (*format) {
     a3c:	00044703          	lbu	a4,0(s0)
     a40:	fe070793          	addi	a5,a4,-32
     a44:	0ff7f613          	andi	a2,a5,255
     a48:	f6c5eee3          	bltu	a1,a2,9c4 <_vsnprintf+0x88>
     a4c:	00261793          	slli	a5,a2,0x2
     a50:	00a787b3          	add	a5,a5,a0
     a54:	0007a783          	lw	a5,0(a5)
     a58:	00078067          	jr	a5
D:\Files\Pango\RISCV-SOC\RISC-V\rtl\SparrowRV\bsp\bsp_app\obj/../lib/driver/src/printf.c:630
        case '-': flags |= FLAGS_LEFT;    format++; n = 1U; break;
     a5c:	0026e693          	ori	a3,a3,2
     a60:	fd5ff06f          	j	a34 <_vsnprintf+0xf8>
D:\Files\Pango\RISCV-SOC\RISC-V\rtl\SparrowRV\bsp\bsp_app\obj/../lib/driver/src/printf.c:631
        case '+': flags |= FLAGS_PLUS;    format++; n = 1U; break;
     a64:	0046e693          	ori	a3,a3,4
     a68:	fcdff06f          	j	a34 <_vsnprintf+0xf8>
D:\Files\Pango\RISCV-SOC\RISC-V\rtl\SparrowRV\bsp\bsp_app\obj/../lib/driver/src/printf.c:632
        case ' ': flags |= FLAGS_SPACE;   format++; n = 1U; break;
     a6c:	0086e693          	ori	a3,a3,8
     a70:	fc5ff06f          	j	a34 <_vsnprintf+0xf8>
D:\Files\Pango\RISCV-SOC\RISC-V\rtl\SparrowRV\bsp\bsp_app\obj/../lib/driver/src/printf.c:633
        case '#': flags |= FLAGS_HASH;    format++; n = 1U; break;
     a74:	0106e693          	ori	a3,a3,16
     a78:	fbdff06f          	j	a34 <_vsnprintf+0xf8>
_atoi():
D:\Files\Pango\RISCV-SOC\RISC-V\rtl\SparrowRV\bsp\bsp_app\obj/../lib/driver/src/printf.c:214
  unsigned int i = 0U;
     a7c:	00000413          	li	s0,0
D:\Files\Pango\RISCV-SOC\RISC-V\rtl\SparrowRV\bsp\bsp_app\obj/../lib/driver/src/printf.c:215
  while (_is_digit(**str)) {
     a80:	00900613          	li	a2,9
     a84:	01c12583          	lw	a1,28(sp)
D:\Files\Pango\RISCV-SOC\RISC-V\rtl\SparrowRV\bsp\bsp_app\obj/../lib/driver/src/printf.c:216
    i = i * 10U + (unsigned int)(*((*str)++) - '0');
     a88:	00158593          	addi	a1,a1,1
     a8c:	00241793          	slli	a5,s0,0x2
     a90:	00878433          	add	s0,a5,s0
     a94:	00141413          	slli	s0,s0,0x1
     a98:	00e40433          	add	s0,s0,a4
     a9c:	fd040413          	addi	s0,s0,-48
D:\Files\Pango\RISCV-SOC\RISC-V\rtl\SparrowRV\bsp\bsp_app\obj/../lib/driver/src/printf.c:215
  while (_is_digit(**str)) {
     aa0:	0005c703          	lbu	a4,0(a1)
_is_digit():
D:\Files\Pango\RISCV-SOC\RISC-V\rtl\SparrowRV\bsp\bsp_app\obj/../lib/driver/src/printf.c:207
  return (ch >= '0') && (ch <= '9');
     aa4:	fd070793          	addi	a5,a4,-48
_atoi():
D:\Files\Pango\RISCV-SOC\RISC-V\rtl\SparrowRV\bsp\bsp_app\obj/../lib/driver/src/printf.c:215
  while (_is_digit(**str)) {
     aa8:	0ff7f793          	andi	a5,a5,255
     aac:	fcf67ee3          	bgeu	a2,a5,a88 <_vsnprintf+0x14c>
     ab0:	00b12e23          	sw	a1,28(sp)
     ab4:	f31ff06f          	j	9e4 <_vsnprintf+0xa8>
_vsnprintf():
D:\Files\Pango\RISCV-SOC\RISC-V\rtl\SparrowRV\bsp\bsp_app\obj/../lib/driver/src/printf.c:644
      const int w = va_arg(va, int);
     ab8:	02c12783          	lw	a5,44(sp)
     abc:	00478713          	addi	a4,a5,4
     ac0:	0007a783          	lw	a5,0(a5)
D:\Files\Pango\RISCV-SOC\RISC-V\rtl\SparrowRV\bsp\bsp_app\obj/../lib/driver/src/printf.c:650
        width = (unsigned int)w;
     ac4:	00078413          	mv	s0,a5
D:\Files\Pango\RISCV-SOC\RISC-V\rtl\SparrowRV\bsp\bsp_app\obj/../lib/driver/src/printf.c:645
      if (w < 0) {
     ac8:	0007cc63          	bltz	a5,ae0 <_vsnprintf+0x1a4>
D:\Files\Pango\RISCV-SOC\RISC-V\rtl\SparrowRV\bsp\bsp_app\obj/../lib/driver/src/printf.c:652
      format++;
     acc:	01c12783          	lw	a5,28(sp)
     ad0:	00178793          	addi	a5,a5,1
     ad4:	00f12e23          	sw	a5,28(sp)
D:\Files\Pango\RISCV-SOC\RISC-V\rtl\SparrowRV\bsp\bsp_app\obj/../lib/driver/src/printf.c:644
      const int w = va_arg(va, int);
     ad8:	02e12623          	sw	a4,44(sp)
     adc:	f09ff06f          	j	9e4 <_vsnprintf+0xa8>
D:\Files\Pango\RISCV-SOC\RISC-V\rtl\SparrowRV\bsp\bsp_app\obj/../lib/driver/src/printf.c:646
        flags |= FLAGS_LEFT;    // reverse padding
     ae0:	0026e693          	ori	a3,a3,2
D:\Files\Pango\RISCV-SOC\RISC-V\rtl\SparrowRV\bsp\bsp_app\obj/../lib/driver/src/printf.c:647
        width = (unsigned int)-w;
     ae4:	40f00433          	neg	s0,a5
     ae8:	fe5ff06f          	j	acc <_vsnprintf+0x190>
D:\Files\Pango\RISCV-SOC\RISC-V\rtl\SparrowRV\bsp\bsp_app\obj/../lib/driver/src/printf.c:658
      flags |= FLAGS_PRECISION;
     aec:	4006e693          	ori	a3,a3,1024
D:\Files\Pango\RISCV-SOC\RISC-V\rtl\SparrowRV\bsp\bsp_app\obj/../lib/driver/src/printf.c:659
      format++;
     af0:	01c12783          	lw	a5,28(sp)
     af4:	00178613          	addi	a2,a5,1
D:\Files\Pango\RISCV-SOC\RISC-V\rtl\SparrowRV\bsp\bsp_app\obj/../lib/driver/src/printf.c:660
      if (_is_digit(*format)) {
     af8:	0017c783          	lbu	a5,1(a5)
_is_digit():
D:\Files\Pango\RISCV-SOC\RISC-V\rtl\SparrowRV\bsp\bsp_app\obj/../lib/driver/src/printf.c:207
  return (ch >= '0') && (ch <= '9');
     afc:	fd078713          	addi	a4,a5,-48
_vsnprintf():
D:\Files\Pango\RISCV-SOC\RISC-V\rtl\SparrowRV\bsp\bsp_app\obj/../lib/driver/src/printf.c:660
      if (_is_digit(*format)) {
     b00:	0ff77713          	andi	a4,a4,255
     b04:	00900593          	li	a1,9
     b08:	00e5fc63          	bgeu	a1,a4,b20 <_vsnprintf+0x1e4>
D:\Files\Pango\RISCV-SOC\RISC-V\rtl\SparrowRV\bsp\bsp_app\obj/../lib/driver/src/printf.c:663
      else if (*format == '*') {
     b0c:	02a00713          	li	a4,42
     b10:	04e78063          	beq	a5,a4,b50 <_vsnprintf+0x214>
D:\Files\Pango\RISCV-SOC\RISC-V\rtl\SparrowRV\bsp\bsp_app\obj/../lib/driver/src/printf.c:659
      format++;
     b14:	00c12e23          	sw	a2,28(sp)
D:\Files\Pango\RISCV-SOC\RISC-V\rtl\SparrowRV\bsp\bsp_app\obj/../lib/driver/src/printf.c:656
    precision = 0U;
     b18:	00000493          	li	s1,0
     b1c:	eddff06f          	j	9f8 <_vsnprintf+0xbc>
_atoi():
D:\Files\Pango\RISCV-SOC\RISC-V\rtl\SparrowRV\bsp\bsp_app\obj/../lib/driver/src/printf.c:216
    i = i * 10U + (unsigned int)(*((*str)++) - '0');
     b20:	00160613          	addi	a2,a2,1
     b24:	00249713          	slli	a4,s1,0x2
     b28:	00970733          	add	a4,a4,s1
     b2c:	00171713          	slli	a4,a4,0x1
     b30:	00f707b3          	add	a5,a4,a5
     b34:	fd078493          	addi	s1,a5,-48
D:\Files\Pango\RISCV-SOC\RISC-V\rtl\SparrowRV\bsp\bsp_app\obj/../lib/driver/src/printf.c:215
  while (_is_digit(**str)) {
     b38:	00064783          	lbu	a5,0(a2)
_is_digit():
D:\Files\Pango\RISCV-SOC\RISC-V\rtl\SparrowRV\bsp\bsp_app\obj/../lib/driver/src/printf.c:207
  return (ch >= '0') && (ch <= '9');
     b3c:	fd078513          	addi	a0,a5,-48
_atoi():
D:\Files\Pango\RISCV-SOC\RISC-V\rtl\SparrowRV\bsp\bsp_app\obj/../lib/driver/src/printf.c:215
  while (_is_digit(**str)) {
     b40:	0ff57513          	andi	a0,a0,255
     b44:	fca5fee3          	bgeu	a1,a0,b20 <_vsnprintf+0x1e4>
D:\Files\Pango\RISCV-SOC\RISC-V\rtl\SparrowRV\bsp\bsp_app\obj/../lib/driver/src/printf.c:216
    i = i * 10U + (unsigned int)(*((*str)++) - '0');
     b48:	00c12e23          	sw	a2,28(sp)
     b4c:	eadff06f          	j	9f8 <_vsnprintf+0xbc>
_vsnprintf():
D:\Files\Pango\RISCV-SOC\RISC-V\rtl\SparrowRV\bsp\bsp_app\obj/../lib/driver/src/printf.c:665
        precision = prec > 0 ? (unsigned int)prec : 0U;
     b50:	02c12703          	lw	a4,44(sp)
     b54:	00072483          	lw	s1,0(a4)
     b58:	fff4c793          	not	a5,s1
     b5c:	41f7d793          	srai	a5,a5,0x1f
     b60:	00f4f4b3          	and	s1,s1,a5
D:\Files\Pango\RISCV-SOC\RISC-V\rtl\SparrowRV\bsp\bsp_app\obj/../lib/driver/src/printf.c:666
        format++;
     b64:	01c12783          	lw	a5,28(sp)
     b68:	00278793          	addi	a5,a5,2
     b6c:	00f12e23          	sw	a5,28(sp)
D:\Files\Pango\RISCV-SOC\RISC-V\rtl\SparrowRV\bsp\bsp_app\obj/../lib/driver/src/printf.c:664
        const int prec = (int)va_arg(va, int);
     b70:	00470793          	addi	a5,a4,4
     b74:	02f12623          	sw	a5,44(sp)
     b78:	e81ff06f          	j	9f8 <_vsnprintf+0xbc>
     b7c:	06800713          	li	a4,104
     b80:	06e79e63          	bne	a5,a4,bfc <_vsnprintf+0x2c0>
D:\Files\Pango\RISCV-SOC\RISC-V\rtl\SparrowRV\bsp\bsp_app\obj/../lib/driver/src/printf.c:683
        if (*format == 'h') {
     b84:	01c12603          	lw	a2,28(sp)
     b88:	00164703          	lbu	a4,1(a2)
     b8c:	06800793          	li	a5,104
     b90:	04f70463          	beq	a4,a5,bd8 <_vsnprintf+0x29c>
D:\Files\Pango\RISCV-SOC\RISC-V\rtl\SparrowRV\bsp\bsp_app\obj/../lib/driver/src/printf.c:681
        flags |= FLAGS_SHORT;
     b94:	0806e693          	ori	a3,a3,128
D:\Files\Pango\RISCV-SOC\RISC-V\rtl\SparrowRV\bsp\bsp_app\obj/../lib/driver/src/printf.c:682
        format++;
     b98:	00160793          	addi	a5,a2,1
     b9c:	00f12e23          	sw	a5,28(sp)
     ba0:	05c0006f          	j	bfc <_vsnprintf+0x2c0>
D:\Files\Pango\RISCV-SOC\RISC-V\rtl\SparrowRV\bsp\bsp_app\obj/../lib/driver/src/printf.c:675
        if (*format == 'l') {
     ba4:	01c12603          	lw	a2,28(sp)
     ba8:	00164703          	lbu	a4,1(a2)
     bac:	06c00793          	li	a5,108
     bb0:	00f70a63          	beq	a4,a5,bc4 <_vsnprintf+0x288>
D:\Files\Pango\RISCV-SOC\RISC-V\rtl\SparrowRV\bsp\bsp_app\obj/../lib/driver/src/printf.c:673
        flags |= FLAGS_LONG;
     bb4:	1006e693          	ori	a3,a3,256
D:\Files\Pango\RISCV-SOC\RISC-V\rtl\SparrowRV\bsp\bsp_app\obj/../lib/driver/src/printf.c:674
        format++;
     bb8:	00160793          	addi	a5,a2,1
     bbc:	00f12e23          	sw	a5,28(sp)
     bc0:	03c0006f          	j	bfc <_vsnprintf+0x2c0>
D:\Files\Pango\RISCV-SOC\RISC-V\rtl\SparrowRV\bsp\bsp_app\obj/../lib/driver/src/printf.c:676
          flags |= FLAGS_LONG_LONG;
     bc4:	3006e693          	ori	a3,a3,768
D:\Files\Pango\RISCV-SOC\RISC-V\rtl\SparrowRV\bsp\bsp_app\obj/../lib/driver/src/printf.c:677
          format++;
     bc8:	01c12783          	lw	a5,28(sp)
     bcc:	00278793          	addi	a5,a5,2
     bd0:	00f12e23          	sw	a5,28(sp)
     bd4:	0280006f          	j	bfc <_vsnprintf+0x2c0>
D:\Files\Pango\RISCV-SOC\RISC-V\rtl\SparrowRV\bsp\bsp_app\obj/../lib/driver/src/printf.c:684
          flags |= FLAGS_CHAR;
     bd8:	0c06e693          	ori	a3,a3,192
D:\Files\Pango\RISCV-SOC\RISC-V\rtl\SparrowRV\bsp\bsp_app\obj/../lib/driver/src/printf.c:685
          format++;
     bdc:	01c12783          	lw	a5,28(sp)
     be0:	00278793          	addi	a5,a5,2
     be4:	00f12e23          	sw	a5,28(sp)
     be8:	0140006f          	j	bfc <_vsnprintf+0x2c0>
D:\Files\Pango\RISCV-SOC\RISC-V\rtl\SparrowRV\bsp\bsp_app\obj/../lib/driver/src/printf.c:695
        flags |= (sizeof(intmax_t) == sizeof(long) ? FLAGS_LONG : FLAGS_LONG_LONG);
     bec:	2006e693          	ori	a3,a3,512
D:\Files\Pango\RISCV-SOC\RISC-V\rtl\SparrowRV\bsp\bsp_app\obj/../lib/driver/src/printf.c:696
        format++;
     bf0:	01c12783          	lw	a5,28(sp)
     bf4:	00178793          	addi	a5,a5,1
     bf8:	00f12e23          	sw	a5,28(sp)
D:\Files\Pango\RISCV-SOC\RISC-V\rtl\SparrowRV\bsp\bsp_app\obj/../lib/driver/src/printf.c:707
    switch (*format) {
     bfc:	01c12783          	lw	a5,28(sp)
     c00:	0007c503          	lbu	a0,0(a5)
     c04:	fdb50793          	addi	a5,a0,-37
     c08:	0ff7f613          	andi	a2,a5,255
     c0c:	05300713          	li	a4,83
     c10:	5ac76e63          	bltu	a4,a2,11cc <__stack_size+0x1cc>
     c14:	00261793          	slli	a5,a2,0x2
     c18:	20000737          	lui	a4,0x20000
     c1c:	04470713          	addi	a4,a4,68 # 20000044 <_sram_base_addr+0x44>
     c20:	00e787b3          	add	a5,a5,a4
     c24:	0007a783          	lw	a5,0(a5)
     c28:	00078067          	jr	a5
D:\Files\Pango\RISCV-SOC\RISC-V\rtl\SparrowRV\bsp\bsp_app\obj/../lib/driver/src/printf.c:717
        if (*format == 'x' || *format == 'X') {
     c2c:	07800793          	li	a5,120
     c30:	68f50463          	beq	a0,a5,12b8 <__stack_size+0x2b8>
D:\Files\Pango\RISCV-SOC\RISC-V\rtl\SparrowRV\bsp\bsp_app\obj/../lib/driver/src/printf.c:717 (discriminator 1)
     c34:	05800793          	li	a5,88
     c38:	5ef50e63          	beq	a0,a5,1234 <__stack_size+0x234>
D:\Files\Pango\RISCV-SOC\RISC-V\rtl\SparrowRV\bsp\bsp_app\obj/../lib/driver/src/printf.c:720
        else if (*format == 'o') {
     c3c:	06f00793          	li	a5,111
     c40:	68f50063          	beq	a0,a5,12c0 <__stack_size+0x2c0>
D:\Files\Pango\RISCV-SOC\RISC-V\rtl\SparrowRV\bsp\bsp_app\obj/../lib/driver/src/printf.c:723
        else if (*format == 'b') {
     c44:	06200793          	li	a5,98
     c48:	68f50063          	beq	a0,a5,12c8 <__stack_size+0x2c8>
D:\Files\Pango\RISCV-SOC\RISC-V\rtl\SparrowRV\bsp\bsp_app\obj/../lib/driver/src/printf.c:728
          flags &= ~FLAGS_HASH;   // no hash for dec format
     c4c:	fef6f613          	andi	a2,a3,-17
D:\Files\Pango\RISCV-SOC\RISC-V\rtl\SparrowRV\bsp\bsp_app\obj/../lib/driver/src/printf.c:736
        if ((*format != 'i') && (*format != 'd')) {
     c50:	06900793          	li	a5,105
     c54:	08f51263          	bne	a0,a5,cd8 <_vsnprintf+0x39c>
D:\Files\Pango\RISCV-SOC\RISC-V\rtl\SparrowRV\bsp\bsp_app\obj/../lib/driver/src/printf.c:741
        if (flags & FLAGS_PRECISION) {
     c58:	4006f793          	andi	a5,a3,1024
D:\Files\Pango\RISCV-SOC\RISC-V\rtl\SparrowRV\bsp\bsp_app\obj/../lib/driver/src/printf.c:727
          base = 10U;
     c5c:	00a00593          	li	a1,10
D:\Files\Pango\RISCV-SOC\RISC-V\rtl\SparrowRV\bsp\bsp_app\obj/../lib/driver/src/printf.c:741
        if (flags & FLAGS_PRECISION) {
     c60:	00078663          	beqz	a5,c6c <_vsnprintf+0x330>
D:\Files\Pango\RISCV-SOC\RISC-V\rtl\SparrowRV\bsp\bsp_app\obj/../lib/driver/src/printf.c:742
          flags &= ~FLAGS_ZEROPAD;
     c64:	fee6f613          	andi	a2,a3,-18
D:\Files\Pango\RISCV-SOC\RISC-V\rtl\SparrowRV\bsp\bsp_app\obj/../lib/driver/src/printf.c:727
          base = 10U;
     c68:	00a00593          	li	a1,10
D:\Files\Pango\RISCV-SOC\RISC-V\rtl\SparrowRV\bsp\bsp_app\obj/../lib/driver/src/printf.c:748
          if (flags & FLAGS_LONG_LONG) {
     c6c:	20067793          	andi	a5,a2,512
     c70:	0a079663          	bnez	a5,d1c <_vsnprintf+0x3e0>
D:\Files\Pango\RISCV-SOC\RISC-V\rtl\SparrowRV\bsp\bsp_app\obj/../lib/driver/src/printf.c:754
          else if (flags & FLAGS_LONG) {
     c74:	10067793          	andi	a5,a2,256
     c78:	10079863          	bnez	a5,d88 <_vsnprintf+0x44c>
D:\Files\Pango\RISCV-SOC\RISC-V\rtl\SparrowRV\bsp\bsp_app\obj/../lib/driver/src/printf.c:759
            const int value = (flags & FLAGS_CHAR) ? (char)va_arg(va, int) : (flags & FLAGS_SHORT) ? (short int)va_arg(va, int) : va_arg(va, int);
     c7c:	04067793          	andi	a5,a2,64
     c80:	14078a63          	beqz	a5,dd4 <_vsnprintf+0x498>
     c84:	02c12703          	lw	a4,44(sp)
     c88:	00074783          	lbu	a5,0(a4)
     c8c:	00470713          	addi	a4,a4,4
     c90:	02e12623          	sw	a4,44(sp)
D:\Files\Pango\RISCV-SOC\RISC-V\rtl\SparrowRV\bsp\bsp_app\obj/../lib/driver/src/printf.c:760 (discriminator 8)
            idx = _ntoa_long(out, buffer, idx, maxlen, (unsigned int)(value > 0 ? value : 0 - value), value < 0, base, precision, width, flags);
     c94:	41f7d713          	srai	a4,a5,0x1f
     c98:	00f746b3          	xor	a3,a4,a5
     c9c:	00c12623          	sw	a2,12(sp)
     ca0:	00812423          	sw	s0,8(sp)
     ca4:	00912223          	sw	s1,4(sp)
     ca8:	00b12023          	sw	a1,0(sp)
     cac:	01f7d793          	srli	a5,a5,0x1f
     cb0:	40e68733          	sub	a4,a3,a4
     cb4:	02012683          	lw	a3,32(sp)
     cb8:	01812603          	lw	a2,24(sp)
     cbc:	02412583          	lw	a1,36(sp)
     cc0:	02812503          	lw	a0,40(sp)
     cc4:	a2dff0ef          	jal	ra,6f0 <_ntoa_long>
     cc8:	00a12c23          	sw	a0,24(sp)
D:\Files\Pango\RISCV-SOC\RISC-V\rtl\SparrowRV\bsp\bsp_app\obj/../lib/driver/src/printf.c:778
        format++;
     ccc:	01c12783          	lw	a5,28(sp)
     cd0:	00178413          	addi	s0,a5,1
D:\Files\Pango\RISCV-SOC\RISC-V\rtl\SparrowRV\bsp\bsp_app\obj/../lib/driver/src/printf.c:779
        break;
     cd4:	c95ff06f          	j	968 <_vsnprintf+0x2c>
D:\Files\Pango\RISCV-SOC\RISC-V\rtl\SparrowRV\bsp\bsp_app\obj/../lib/driver/src/printf.c:736 (discriminator 1)
        if ((*format != 'i') && (*format != 'd')) {
     cd8:	06400793          	li	a5,100
     cdc:	00f51e63          	bne	a0,a5,cf8 <_vsnprintf+0x3bc>
D:\Files\Pango\RISCV-SOC\RISC-V\rtl\SparrowRV\bsp\bsp_app\obj/../lib/driver/src/printf.c:741
        if (flags & FLAGS_PRECISION) {
     ce0:	4006f793          	andi	a5,a3,1024
D:\Files\Pango\RISCV-SOC\RISC-V\rtl\SparrowRV\bsp\bsp_app\obj/../lib/driver/src/printf.c:727
          base = 10U;
     ce4:	00a00593          	li	a1,10
D:\Files\Pango\RISCV-SOC\RISC-V\rtl\SparrowRV\bsp\bsp_app\obj/../lib/driver/src/printf.c:741
        if (flags & FLAGS_PRECISION) {
     ce8:	f80782e3          	beqz	a5,c6c <_vsnprintf+0x330>
D:\Files\Pango\RISCV-SOC\RISC-V\rtl\SparrowRV\bsp\bsp_app\obj/../lib/driver/src/printf.c:742
          flags &= ~FLAGS_ZEROPAD;
     cec:	fee6f613          	andi	a2,a3,-18
D:\Files\Pango\RISCV-SOC\RISC-V\rtl\SparrowRV\bsp\bsp_app\obj/../lib/driver/src/printf.c:727
          base = 10U;
     cf0:	00a00593          	li	a1,10
     cf4:	f79ff06f          	j	c6c <_vsnprintf+0x330>
D:\Files\Pango\RISCV-SOC\RISC-V\rtl\SparrowRV\bsp\bsp_app\obj/../lib/driver/src/printf.c:728
          flags &= ~FLAGS_HASH;   // no hash for dec format
     cf8:	00060693          	mv	a3,a2
D:\Files\Pango\RISCV-SOC\RISC-V\rtl\SparrowRV\bsp\bsp_app\obj/../lib/driver/src/printf.c:727
          base = 10U;
     cfc:	00a00593          	li	a1,10
     d00:	53c0006f          	j	123c <__stack_size+0x23c>
D:\Files\Pango\RISCV-SOC\RISC-V\rtl\SparrowRV\bsp\bsp_app\obj/../lib/driver/src/printf.c:742
          flags &= ~FLAGS_ZEROPAD;
     d04:	ff26f613          	andi	a2,a3,-14
D:\Files\Pango\RISCV-SOC\RISC-V\rtl\SparrowRV\bsp\bsp_app\obj/../lib/driver/src/printf.c:746
        if ((*format == 'i') || (*format == 'd')) {
     d08:	06900793          	li	a5,105
     d0c:	f6f500e3          	beq	a0,a5,c6c <_vsnprintf+0x330>
D:\Files\Pango\RISCV-SOC\RISC-V\rtl\SparrowRV\bsp\bsp_app\obj/../lib/driver/src/printf.c:746 (discriminator 1)
     d10:	06400793          	li	a5,100
     d14:	52f51a63          	bne	a0,a5,1248 <__stack_size+0x248>
     d18:	f55ff06f          	j	c6c <_vsnprintf+0x330>
D:\Files\Pango\RISCV-SOC\RISC-V\rtl\SparrowRV\bsp\bsp_app\obj/../lib/driver/src/printf.c:750
            const long long value = va_arg(va, long long);
     d1c:	02c12783          	lw	a5,44(sp)
     d20:	00878713          	addi	a4,a5,8
     d24:	02e12623          	sw	a4,44(sp)
     d28:	00078713          	mv	a4,a5
     d2c:	0007a783          	lw	a5,0(a5)
     d30:	00472683          	lw	a3,4(a4)
D:\Files\Pango\RISCV-SOC\RISC-V\rtl\SparrowRV\bsp\bsp_app\obj/../lib/driver/src/printf.c:751
            idx = _ntoa_long_long(out, buffer, idx, maxlen, (unsigned long long)(value > 0 ? value : 0 - value), value < 0, base, precision, width, flags);
     d34:	41f6d513          	srai	a0,a3,0x1f
     d38:	00f547b3          	xor	a5,a0,a5
     d3c:	00d54333          	xor	t1,a0,a3
     d40:	40a78733          	sub	a4,a5,a0
     d44:	00e7b7b3          	sltu	a5,a5,a4
     d48:	40a30533          	sub	a0,t1,a0
     d4c:	00c12a23          	sw	a2,20(sp)
     d50:	00812823          	sw	s0,16(sp)
     d54:	00912623          	sw	s1,12(sp)
     d58:	00b12223          	sw	a1,4(sp)
     d5c:	00012423          	sw	zero,8(sp)
     d60:	01f6d693          	srli	a3,a3,0x1f
     d64:	00d12023          	sw	a3,0(sp)
     d68:	40f507b3          	sub	a5,a0,a5
     d6c:	02012683          	lw	a3,32(sp)
     d70:	01812603          	lw	a2,24(sp)
     d74:	02412583          	lw	a1,36(sp)
     d78:	02812503          	lw	a0,40(sp)
     d7c:	a59ff0ef          	jal	ra,7d4 <_ntoa_long_long>
     d80:	00a12c23          	sw	a0,24(sp)
     d84:	f49ff06f          	j	ccc <_vsnprintf+0x390>
D:\Files\Pango\RISCV-SOC\RISC-V\rtl\SparrowRV\bsp\bsp_app\obj/../lib/driver/src/printf.c:755
            const long value = va_arg(va, long);
     d88:	02c12783          	lw	a5,44(sp)
     d8c:	00478713          	addi	a4,a5,4
     d90:	02e12623          	sw	a4,44(sp)
     d94:	0007a783          	lw	a5,0(a5)
D:\Files\Pango\RISCV-SOC\RISC-V\rtl\SparrowRV\bsp\bsp_app\obj/../lib/driver/src/printf.c:756
            idx = _ntoa_long(out, buffer, idx, maxlen, (unsigned long)(value > 0 ? value : 0 - value), value < 0, base, precision, width, flags);
     d98:	41f7d713          	srai	a4,a5,0x1f
     d9c:	00f746b3          	xor	a3,a4,a5
     da0:	00c12623          	sw	a2,12(sp)
     da4:	00812423          	sw	s0,8(sp)
     da8:	00912223          	sw	s1,4(sp)
     dac:	00b12023          	sw	a1,0(sp)
     db0:	01f7d793          	srli	a5,a5,0x1f
     db4:	40e68733          	sub	a4,a3,a4
     db8:	02012683          	lw	a3,32(sp)
     dbc:	01812603          	lw	a2,24(sp)
     dc0:	02412583          	lw	a1,36(sp)
     dc4:	02812503          	lw	a0,40(sp)
     dc8:	929ff0ef          	jal	ra,6f0 <_ntoa_long>
     dcc:	00a12c23          	sw	a0,24(sp)
     dd0:	efdff06f          	j	ccc <_vsnprintf+0x390>
D:\Files\Pango\RISCV-SOC\RISC-V\rtl\SparrowRV\bsp\bsp_app\obj/../lib/driver/src/printf.c:759 (discriminator 2)
            const int value = (flags & FLAGS_CHAR) ? (char)va_arg(va, int) : (flags & FLAGS_SHORT) ? (short int)va_arg(va, int) : va_arg(va, int);
     dd4:	08067793          	andi	a5,a2,128
     dd8:	00078c63          	beqz	a5,df0 <_vsnprintf+0x4b4>
D:\Files\Pango\RISCV-SOC\RISC-V\rtl\SparrowRV\bsp\bsp_app\obj/../lib/driver/src/printf.c:759
     ddc:	02c12703          	lw	a4,44(sp)
     de0:	00071783          	lh	a5,0(a4)
     de4:	00470713          	addi	a4,a4,4
     de8:	02e12623          	sw	a4,44(sp)
     dec:	ea9ff06f          	j	c94 <_vsnprintf+0x358>
     df0:	02c12703          	lw	a4,44(sp)
     df4:	00072783          	lw	a5,0(a4)
     df8:	00470713          	addi	a4,a4,4
     dfc:	02e12623          	sw	a4,44(sp)
     e00:	e95ff06f          	j	c94 <_vsnprintf+0x358>
D:\Files\Pango\RISCV-SOC\RISC-V\rtl\SparrowRV\bsp\bsp_app\obj/../lib/driver/src/printf.c:767
            idx = _ntoa_long_long(out, buffer, idx, maxlen, va_arg(va, unsigned long long), false, base, precision, width, flags);
     e04:	02c12783          	lw	a5,44(sp)
     e08:	00878713          	addi	a4,a5,8
     e0c:	02e12623          	sw	a4,44(sp)
     e10:	0007a703          	lw	a4,0(a5)
     e14:	0047a783          	lw	a5,4(a5)
     e18:	00c12a23          	sw	a2,20(sp)
     e1c:	00812823          	sw	s0,16(sp)
     e20:	00912623          	sw	s1,12(sp)
     e24:	00b12223          	sw	a1,4(sp)
     e28:	00012423          	sw	zero,8(sp)
     e2c:	00012023          	sw	zero,0(sp)
     e30:	02012683          	lw	a3,32(sp)
     e34:	01812603          	lw	a2,24(sp)
     e38:	02412583          	lw	a1,36(sp)
     e3c:	02812503          	lw	a0,40(sp)
     e40:	995ff0ef          	jal	ra,7d4 <_ntoa_long_long>
     e44:	00a12c23          	sw	a0,24(sp)
     e48:	e85ff06f          	j	ccc <_vsnprintf+0x390>
D:\Files\Pango\RISCV-SOC\RISC-V\rtl\SparrowRV\bsp\bsp_app\obj/../lib/driver/src/printf.c:771
            idx = _ntoa_long(out, buffer, idx, maxlen, va_arg(va, unsigned long), false, base, precision, width, flags);
     e4c:	02c12783          	lw	a5,44(sp)
     e50:	00478713          	addi	a4,a5,4
     e54:	02e12623          	sw	a4,44(sp)
     e58:	0007a703          	lw	a4,0(a5)
     e5c:	00c12623          	sw	a2,12(sp)
     e60:	00812423          	sw	s0,8(sp)
     e64:	00912223          	sw	s1,4(sp)
     e68:	00b12023          	sw	a1,0(sp)
     e6c:	00000793          	li	a5,0
     e70:	02012683          	lw	a3,32(sp)
     e74:	01812603          	lw	a2,24(sp)
     e78:	02412583          	lw	a1,36(sp)
     e7c:	02812503          	lw	a0,40(sp)
     e80:	871ff0ef          	jal	ra,6f0 <_ntoa_long>
     e84:	00a12c23          	sw	a0,24(sp)
     e88:	e45ff06f          	j	ccc <_vsnprintf+0x390>
D:\Files\Pango\RISCV-SOC\RISC-V\rtl\SparrowRV\bsp\bsp_app\obj/../lib/driver/src/printf.c:774 (discriminator 2)
            const unsigned int value = (flags & FLAGS_CHAR) ? (unsigned char)va_arg(va, unsigned int) : (flags & FLAGS_SHORT) ? (unsigned short int)va_arg(va, unsigned int) : va_arg(va, unsigned int);
     e8c:	08067793          	andi	a5,a2,128
     e90:	00078c63          	beqz	a5,ea8 <_vsnprintf+0x56c>
     e94:	02c12783          	lw	a5,44(sp)
     e98:	0007d703          	lhu	a4,0(a5)
D:\Files\Pango\RISCV-SOC\RISC-V\rtl\SparrowRV\bsp\bsp_app\obj/../lib/driver/src/printf.c:774
     e9c:	00478793          	addi	a5,a5,4
     ea0:	02f12623          	sw	a5,44(sp)
     ea4:	3cc0006f          	j	1270 <__stack_size+0x270>
     ea8:	02c12783          	lw	a5,44(sp)
     eac:	0007a703          	lw	a4,0(a5)
     eb0:	00478793          	addi	a5,a5,4
     eb4:	02f12623          	sw	a5,44(sp)
     eb8:	3b80006f          	j	1270 <__stack_size+0x270>
D:\Files\Pango\RISCV-SOC\RISC-V\rtl\SparrowRV\bsp\bsp_app\obj/../lib/driver/src/printf.c:803
        if (!(flags & FLAGS_LEFT)) {
     ebc:	0026f693          	andi	a3,a3,2
     ec0:	08068063          	beqz	a3,f40 <_vsnprintf+0x604>
D:\Files\Pango\RISCV-SOC\RISC-V\rtl\SparrowRV\bsp\bsp_app\obj/../lib/driver/src/printf.c:809
        out((char)va_arg(va, int), buffer, idx++, maxlen);
     ec4:	02c12503          	lw	a0,44(sp)
     ec8:	00450793          	addi	a5,a0,4
     ecc:	02f12623          	sw	a5,44(sp)
     ed0:	01812783          	lw	a5,24(sp)
     ed4:	00178493          	addi	s1,a5,1
     ed8:	02012683          	lw	a3,32(sp)
     edc:	00078613          	mv	a2,a5
     ee0:	02412583          	lw	a1,36(sp)
     ee4:	00054503          	lbu	a0,0(a0)
     ee8:	02812783          	lw	a5,40(sp)
     eec:	000780e7          	jalr	a5
D:\Files\Pango\RISCV-SOC\RISC-V\rtl\SparrowRV\bsp\bsp_app\obj/../lib/driver/src/printf.c:812
          while (l++ < width) {
     ef0:	00100793          	li	a5,1
     ef4:	01812703          	lw	a4,24(sp)
     ef8:	00e40733          	add	a4,s0,a4
     efc:	3a87f663          	bgeu	a5,s0,12a8 <__stack_size+0x2a8>
     f00:	00048613          	mv	a2,s1
     f04:	02812823          	sw	s0,48(sp)
     f08:	00070493          	mv	s1,a4
D:\Files\Pango\RISCV-SOC\RISC-V\rtl\SparrowRV\bsp\bsp_app\obj/../lib/driver/src/printf.c:813
            out(' ', buffer, idx++, maxlen);
     f0c:	00160413          	addi	s0,a2,1
     f10:	02012683          	lw	a3,32(sp)
     f14:	02412583          	lw	a1,36(sp)
     f18:	02000513          	li	a0,32
     f1c:	02812783          	lw	a5,40(sp)
     f20:	000780e7          	jalr	a5
     f24:	00040613          	mv	a2,s0
D:\Files\Pango\RISCV-SOC\RISC-V\rtl\SparrowRV\bsp\bsp_app\obj/../lib/driver/src/printf.c:812
          while (l++ < width) {
     f28:	fe9412e3          	bne	s0,s1,f0c <_vsnprintf+0x5d0>
     f2c:	03012403          	lw	s0,48(sp)
     f30:	01812783          	lw	a5,24(sp)
     f34:	008787b3          	add	a5,a5,s0
     f38:	00f12c23          	sw	a5,24(sp)
     f3c:	0640006f          	j	fa0 <_vsnprintf+0x664>
D:\Files\Pango\RISCV-SOC\RISC-V\rtl\SparrowRV\bsp\bsp_app\obj/../lib/driver/src/printf.c:804
          while (l++ < width) {
     f40:	00100793          	li	a5,1
     f44:	3487fe63          	bgeu	a5,s0,12a0 <__stack_size+0x2a0>
     f48:	01812603          	lw	a2,24(sp)
     f4c:	fff60493          	addi	s1,a2,-1
     f50:	008484b3          	add	s1,s1,s0
D:\Files\Pango\RISCV-SOC\RISC-V\rtl\SparrowRV\bsp\bsp_app\obj/../lib/driver/src/printf.c:805
            out(' ', buffer, idx++, maxlen);
     f54:	00160413          	addi	s0,a2,1
     f58:	02012683          	lw	a3,32(sp)
     f5c:	02412583          	lw	a1,36(sp)
     f60:	02000513          	li	a0,32
     f64:	02812783          	lw	a5,40(sp)
     f68:	000780e7          	jalr	a5
     f6c:	00040613          	mv	a2,s0
D:\Files\Pango\RISCV-SOC\RISC-V\rtl\SparrowRV\bsp\bsp_app\obj/../lib/driver/src/printf.c:804
          while (l++ < width) {
     f70:	fe8492e3          	bne	s1,s0,f54 <_vsnprintf+0x618>
D:\Files\Pango\RISCV-SOC\RISC-V\rtl\SparrowRV\bsp\bsp_app\obj/../lib/driver/src/printf.c:809
        out((char)va_arg(va, int), buffer, idx++, maxlen);
     f74:	02c12783          	lw	a5,44(sp)
     f78:	00478413          	addi	s0,a5,4
     f7c:	00148713          	addi	a4,s1,1
     f80:	00e12c23          	sw	a4,24(sp)
     f84:	02012683          	lw	a3,32(sp)
     f88:	00048613          	mv	a2,s1
     f8c:	02412583          	lw	a1,36(sp)
     f90:	0007c503          	lbu	a0,0(a5)
     f94:	02812783          	lw	a5,40(sp)
     f98:	000780e7          	jalr	a5
     f9c:	02812623          	sw	s0,44(sp)
D:\Files\Pango\RISCV-SOC\RISC-V\rtl\SparrowRV\bsp\bsp_app\obj/../lib/driver/src/printf.c:816
        format++;
     fa0:	01c12783          	lw	a5,28(sp)
     fa4:	00178413          	addi	s0,a5,1
D:\Files\Pango\RISCV-SOC\RISC-V\rtl\SparrowRV\bsp\bsp_app\obj/../lib/driver/src/printf.c:817
        break;
     fa8:	9c1ff06f          	j	968 <_vsnprintf+0x2c>
D:\Files\Pango\RISCV-SOC\RISC-V\rtl\SparrowRV\bsp\bsp_app\obj/../lib/driver/src/printf.c:821
        const char* p = va_arg(va, char*);
     fac:	02c12783          	lw	a5,44(sp)
     fb0:	00478713          	addi	a4,a5,4
     fb4:	02e12a23          	sw	a4,52(sp)
     fb8:	0007a783          	lw	a5,0(a5)
     fbc:	02f12623          	sw	a5,44(sp)
D:\Files\Pango\RISCV-SOC\RISC-V\rtl\SparrowRV\bsp\bsp_app\obj/../lib/driver/src/printf.c:822
        unsigned int l = _strnlen_s(p, precision ? precision : (size_t)-1);
     fc0:	00048713          	mv	a4,s1
     fc4:	00049463          	bnez	s1,fcc <_vsnprintf+0x690>
     fc8:	fff00713          	li	a4,-1
_strnlen_s():
D:\Files\Pango\RISCV-SOC\RISC-V\rtl\SparrowRV\bsp\bsp_app\obj/../lib/driver/src/printf.c:198
  for (s = str; *s && maxsize--; ++s);
     fcc:	02c12603          	lw	a2,44(sp)
     fd0:	00064503          	lbu	a0,0(a2)
     fd4:	02050063          	beqz	a0,ff4 <_vsnprintf+0x6b8>
     fd8:	02c12583          	lw	a1,44(sp)
     fdc:	00160613          	addi	a2,a2,1
     fe0:	00064783          	lbu	a5,0(a2)
     fe4:	00078863          	beqz	a5,ff4 <_vsnprintf+0x6b8>
     fe8:	40c587b3          	sub	a5,a1,a2
     fec:	00e787b3          	add	a5,a5,a4
     ff0:	fe0796e3          	bnez	a5,fdc <_vsnprintf+0x6a0>
D:\Files\Pango\RISCV-SOC\RISC-V\rtl\SparrowRV\bsp\bsp_app\obj/../lib/driver/src/printf.c:199
  return (unsigned int)(s - str);
     ff4:	02c12783          	lw	a5,44(sp)
     ff8:	40f60733          	sub	a4,a2,a5
     ffc:	02e12c23          	sw	a4,56(sp)
_vsnprintf():
D:\Files\Pango\RISCV-SOC\RISC-V\rtl\SparrowRV\bsp\bsp_app\obj/../lib/driver/src/printf.c:824
        if (flags & FLAGS_PRECISION) {
    1000:	4006f793          	andi	a5,a3,1024
    1004:	02f12823          	sw	a5,48(sp)
    1008:	00078663          	beqz	a5,1014 <__stack_size+0x14>
D:\Files\Pango\RISCV-SOC\RISC-V\rtl\SparrowRV\bsp\bsp_app\obj/../lib/driver/src/printf.c:825
          l = (l < precision ? l : precision);
    100c:	00e4f463          	bgeu	s1,a4,1014 <__stack_size+0x14>
    1010:	02912c23          	sw	s1,56(sp)
D:\Files\Pango\RISCV-SOC\RISC-V\rtl\SparrowRV\bsp\bsp_app\obj/../lib/driver/src/printf.c:827
        if (!(flags & FLAGS_LEFT)) {
    1014:	0026f793          	andi	a5,a3,2
    1018:	02f12e23          	sw	a5,60(sp)
    101c:	00078a63          	beqz	a5,1030 <__stack_size+0x30>
D:\Files\Pango\RISCV-SOC\RISC-V\rtl\SparrowRV\bsp\bsp_app\obj/../lib/driver/src/printf.c:833
        while ((*p != 0) && (!(flags & FLAGS_PRECISION) || precision--)) {
    1020:	0e050663          	beqz	a0,110c <__stack_size+0x10c>
D:\Files\Pango\RISCV-SOC\RISC-V\rtl\SparrowRV\bsp\bsp_app\obj/../lib/driver/src/printf.c:833 (discriminator 1)
    1024:	01812603          	lw	a2,24(sp)
    1028:	04812023          	sw	s0,64(sp)
    102c:	0a00006f          	j	10cc <__stack_size+0xcc>
D:\Files\Pango\RISCV-SOC\RISC-V\rtl\SparrowRV\bsp\bsp_app\obj/../lib/driver/src/printf.c:828
          while (l++ < width) {
    1030:	03812703          	lw	a4,56(sp)
    1034:	00170793          	addi	a5,a4,1
    1038:	26877c63          	bgeu	a4,s0,12b0 <__stack_size+0x2b0>
    103c:	01812603          	lw	a2,24(sp)
    1040:	00c407b3          	add	a5,s0,a2
    1044:	40e787b3          	sub	a5,a5,a4
    1048:	00f12c23          	sw	a5,24(sp)
    104c:	02812c23          	sw	s0,56(sp)
    1050:	04912023          	sw	s1,64(sp)
    1054:	02812483          	lw	s1,40(sp)
D:\Files\Pango\RISCV-SOC\RISC-V\rtl\SparrowRV\bsp\bsp_app\obj/../lib/driver/src/printf.c:829
            out(' ', buffer, idx++, maxlen);
    1058:	00160413          	addi	s0,a2,1
    105c:	02012683          	lw	a3,32(sp)
    1060:	02412583          	lw	a1,36(sp)
    1064:	02000513          	li	a0,32
    1068:	000480e7          	jalr	s1
    106c:	00040613          	mv	a2,s0
D:\Files\Pango\RISCV-SOC\RISC-V\rtl\SparrowRV\bsp\bsp_app\obj/../lib/driver/src/printf.c:828
          while (l++ < width) {
    1070:	01812783          	lw	a5,24(sp)
    1074:	fef412e3          	bne	s0,a5,1058 <__stack_size+0x58>
    1078:	03812403          	lw	s0,56(sp)
    107c:	04012483          	lw	s1,64(sp)
    1080:	00140793          	addi	a5,s0,1
    1084:	02f12c23          	sw	a5,56(sp)
D:\Files\Pango\RISCV-SOC\RISC-V\rtl\SparrowRV\bsp\bsp_app\obj/../lib/driver/src/printf.c:833
        while ((*p != 0) && (!(flags & FLAGS_PRECISION) || precision--)) {
    1088:	02c12783          	lw	a5,44(sp)
    108c:	0007c503          	lbu	a0,0(a5)
    1090:	f8051ae3          	bnez	a0,1024 <__stack_size+0x24>
    1094:	0640006f          	j	10f8 <__stack_size+0xf8>
    1098:	00078493          	mv	s1,a5
D:\Files\Pango\RISCV-SOC\RISC-V\rtl\SparrowRV\bsp\bsp_app\obj/../lib/driver/src/printf.c:834
          out(*(p++), buffer, idx++, maxlen);
    109c:	00160413          	addi	s0,a2,1
    10a0:	02012683          	lw	a3,32(sp)
    10a4:	02412583          	lw	a1,36(sp)
    10a8:	02812783          	lw	a5,40(sp)
    10ac:	000780e7          	jalr	a5
D:\Files\Pango\RISCV-SOC\RISC-V\rtl\SparrowRV\bsp\bsp_app\obj/../lib/driver/src/printf.c:833
        while ((*p != 0) && (!(flags & FLAGS_PRECISION) || precision--)) {
    10b0:	01812783          	lw	a5,24(sp)
    10b4:	40f407b3          	sub	a5,s0,a5
    10b8:	02c12703          	lw	a4,44(sp)
    10bc:	00f707b3          	add	a5,a4,a5
    10c0:	0007c503          	lbu	a0,0(a5)
    10c4:	02050263          	beqz	a0,10e8 <__stack_size+0xe8>
D:\Files\Pango\RISCV-SOC\RISC-V\rtl\SparrowRV\bsp\bsp_app\obj/../lib/driver/src/printf.c:834
          out(*(p++), buffer, idx++, maxlen);
    10c8:	00040613          	mv	a2,s0
D:\Files\Pango\RISCV-SOC\RISC-V\rtl\SparrowRV\bsp\bsp_app\obj/../lib/driver/src/printf.c:833 (discriminator 1)
        while ((*p != 0) && (!(flags & FLAGS_PRECISION) || precision--)) {
    10cc:	03012783          	lw	a5,48(sp)
    10d0:	fc0786e3          	beqz	a5,109c <__stack_size+0x9c>
D:\Files\Pango\RISCV-SOC\RISC-V\rtl\SparrowRV\bsp\bsp_app\obj/../lib/driver/src/printf.c:833 (discriminator 2)
    10d4:	fff48793          	addi	a5,s1,-1
    10d8:	fc0490e3          	bnez	s1,1098 <__stack_size+0x98>
    10dc:	04012403          	lw	s0,64(sp)
    10e0:	00c12c23          	sw	a2,24(sp)
    10e4:	00c0006f          	j	10f0 <__stack_size+0xf0>
    10e8:	00812c23          	sw	s0,24(sp)
    10ec:	04012403          	lw	s0,64(sp)
D:\Files\Pango\RISCV-SOC\RISC-V\rtl\SparrowRV\bsp\bsp_app\obj/../lib/driver/src/printf.c:837
        if (flags & FLAGS_LEFT) {
    10f0:	03c12783          	lw	a5,60(sp)
    10f4:	00079c63          	bnez	a5,110c <__stack_size+0x10c>
D:\Files\Pango\RISCV-SOC\RISC-V\rtl\SparrowRV\bsp\bsp_app\obj/../lib/driver/src/printf.c:842
        format++;
    10f8:	01c12783          	lw	a5,28(sp)
    10fc:	00178413          	addi	s0,a5,1
D:\Files\Pango\RISCV-SOC\RISC-V\rtl\SparrowRV\bsp\bsp_app\obj/../lib/driver/src/printf.c:821
        const char* p = va_arg(va, char*);
    1100:	03412783          	lw	a5,52(sp)
    1104:	02f12623          	sw	a5,44(sp)
D:\Files\Pango\RISCV-SOC\RISC-V\rtl\SparrowRV\bsp\bsp_app\obj/../lib/driver/src/printf.c:843
        break;
    1108:	861ff06f          	j	968 <_vsnprintf+0x2c>
D:\Files\Pango\RISCV-SOC\RISC-V\rtl\SparrowRV\bsp\bsp_app\obj/../lib/driver/src/printf.c:838
          while (l++ < width) {
    110c:	03812783          	lw	a5,56(sp)
    1110:	fe87f4e3          	bgeu	a5,s0,10f8 <__stack_size+0xf8>
    1114:	01812603          	lw	a2,24(sp)
    1118:	00c404b3          	add	s1,s0,a2
    111c:	40f487b3          	sub	a5,s1,a5
    1120:	00f12c23          	sw	a5,24(sp)
    1124:	02812483          	lw	s1,40(sp)
D:\Files\Pango\RISCV-SOC\RISC-V\rtl\SparrowRV\bsp\bsp_app\obj/../lib/driver/src/printf.c:839
            out(' ', buffer, idx++, maxlen);
    1128:	00160413          	addi	s0,a2,1
    112c:	02012683          	lw	a3,32(sp)
    1130:	02412583          	lw	a1,36(sp)
    1134:	02000513          	li	a0,32
    1138:	000480e7          	jalr	s1
    113c:	00040613          	mv	a2,s0
D:\Files\Pango\RISCV-SOC\RISC-V\rtl\SparrowRV\bsp\bsp_app\obj/../lib/driver/src/printf.c:838
          while (l++ < width) {
    1140:	01812783          	lw	a5,24(sp)
    1144:	fef412e3          	bne	s0,a5,1128 <__stack_size+0x128>
    1148:	fb1ff06f          	j	10f8 <__stack_size+0xf8>
D:\Files\Pango\RISCV-SOC\RISC-V\rtl\SparrowRV\bsp\bsp_app\obj/../lib/driver/src/printf.c:856
        if (is_ll) {
          idx = _ntoa_long_long(out, buffer, idx, maxlen, (uintptr_t)va_arg(va, void*), false, 16U, precision, width, flags);
        }
        else {
#endif
          idx = _ntoa_long(out, buffer, idx, maxlen, (unsigned long)((uintptr_t)va_arg(va, void*)), false, 16U, precision, width, flags);
    114c:	02c12783          	lw	a5,44(sp)
    1150:	00478713          	addi	a4,a5,4
    1154:	02e12623          	sw	a4,44(sp)
    1158:	0007a703          	lw	a4,0(a5)
D:\Files\Pango\RISCV-SOC\RISC-V\rtl\SparrowRV\bsp\bsp_app\obj/../lib/driver/src/printf.c:848
        flags |= FLAGS_ZEROPAD | FLAGS_UPPERCASE;
    115c:	0216e693          	ori	a3,a3,33
D:\Files\Pango\RISCV-SOC\RISC-V\rtl\SparrowRV\bsp\bsp_app\obj/../lib/driver/src/printf.c:856
          idx = _ntoa_long(out, buffer, idx, maxlen, (unsigned long)((uintptr_t)va_arg(va, void*)), false, 16U, precision, width, flags);
    1160:	00d12623          	sw	a3,12(sp)
    1164:	00800793          	li	a5,8
    1168:	00f12423          	sw	a5,8(sp)
    116c:	00912223          	sw	s1,4(sp)
    1170:	01000793          	li	a5,16
    1174:	00f12023          	sw	a5,0(sp)
    1178:	00000793          	li	a5,0
    117c:	02012683          	lw	a3,32(sp)
    1180:	01812603          	lw	a2,24(sp)
    1184:	02412583          	lw	a1,36(sp)
    1188:	02812503          	lw	a0,40(sp)
    118c:	d64ff0ef          	jal	ra,6f0 <_ntoa_long>
    1190:	00a12c23          	sw	a0,24(sp)
D:\Files\Pango\RISCV-SOC\RISC-V\rtl\SparrowRV\bsp\bsp_app\obj/../lib/driver/src/printf.c:860
#if defined(PRINTF_SUPPORT_LONG_LONG)
        }
#endif
        format++;
    1194:	01c12783          	lw	a5,28(sp)
    1198:	00178413          	addi	s0,a5,1
D:\Files\Pango\RISCV-SOC\RISC-V\rtl\SparrowRV\bsp\bsp_app\obj/../lib/driver/src/printf.c:861
        break;
    119c:	fccff06f          	j	968 <_vsnprintf+0x2c>
D:\Files\Pango\RISCV-SOC\RISC-V\rtl\SparrowRV\bsp\bsp_app\obj/../lib/driver/src/printf.c:865
      }

      case '%' :
        out('%', buffer, idx++, maxlen);
    11a0:	01812603          	lw	a2,24(sp)
    11a4:	00160493          	addi	s1,a2,1
    11a8:	02012683          	lw	a3,32(sp)
    11ac:	02412583          	lw	a1,36(sp)
    11b0:	02500513          	li	a0,37
    11b4:	02812783          	lw	a5,40(sp)
    11b8:	000780e7          	jalr	a5
D:\Files\Pango\RISCV-SOC\RISC-V\rtl\SparrowRV\bsp\bsp_app\obj/../lib/driver/src/printf.c:866
        format++;
    11bc:	01c12783          	lw	a5,28(sp)
    11c0:	00178413          	addi	s0,a5,1
D:\Files\Pango\RISCV-SOC\RISC-V\rtl\SparrowRV\bsp\bsp_app\obj/../lib/driver/src/printf.c:865
        out('%', buffer, idx++, maxlen);
    11c4:	00912c23          	sw	s1,24(sp)
D:\Files\Pango\RISCV-SOC\RISC-V\rtl\SparrowRV\bsp\bsp_app\obj/../lib/driver/src/printf.c:867
        break;
    11c8:	fa0ff06f          	j	968 <_vsnprintf+0x2c>
D:\Files\Pango\RISCV-SOC\RISC-V\rtl\SparrowRV\bsp\bsp_app\obj/../lib/driver/src/printf.c:870

      default :
        out(*format, buffer, idx++, maxlen);
    11cc:	01812603          	lw	a2,24(sp)
    11d0:	00160493          	addi	s1,a2,1
    11d4:	02012683          	lw	a3,32(sp)
    11d8:	02412583          	lw	a1,36(sp)
    11dc:	02812783          	lw	a5,40(sp)
    11e0:	000780e7          	jalr	a5
D:\Files\Pango\RISCV-SOC\RISC-V\rtl\SparrowRV\bsp\bsp_app\obj/../lib/driver/src/printf.c:871
        format++;
    11e4:	01c12783          	lw	a5,28(sp)
    11e8:	00178413          	addi	s0,a5,1
D:\Files\Pango\RISCV-SOC\RISC-V\rtl\SparrowRV\bsp\bsp_app\obj/../lib/driver/src/printf.c:870
        out(*format, buffer, idx++, maxlen);
    11ec:	00912c23          	sw	s1,24(sp)
D:\Files\Pango\RISCV-SOC\RISC-V\rtl\SparrowRV\bsp\bsp_app\obj/../lib/driver/src/printf.c:872
        break;
    11f0:	f78ff06f          	j	968 <_vsnprintf+0x2c>
D:\Files\Pango\RISCV-SOC\RISC-V\rtl\SparrowRV\bsp\bsp_app\obj/../lib/driver/src/printf.c:877
    }
  }

  // termination
  out((char)0, buffer, idx < maxlen ? idx : maxlen - 1U, maxlen);
    11f4:	01812783          	lw	a5,24(sp)
    11f8:	00078613          	mv	a2,a5
    11fc:	02012703          	lw	a4,32(sp)
    1200:	00e7e463          	bltu	a5,a4,1208 <__stack_size+0x208>
D:\Files\Pango\RISCV-SOC\RISC-V\rtl\SparrowRV\bsp\bsp_app\obj/../lib/driver/src/printf.c:877 (discriminator 1)
    1204:	fff70613          	addi	a2,a4,-1
D:\Files\Pango\RISCV-SOC\RISC-V\rtl\SparrowRV\bsp\bsp_app\obj/../lib/driver/src/printf.c:877 (discriminator 4)
    1208:	02012683          	lw	a3,32(sp)
    120c:	02412583          	lw	a1,36(sp)
    1210:	00000513          	li	a0,0
    1214:	02812783          	lw	a5,40(sp)
    1218:	000780e7          	jalr	a5
D:\Files\Pango\RISCV-SOC\RISC-V\rtl\SparrowRV\bsp\bsp_app\obj/../lib/driver/src/printf.c:881 (discriminator 4)

  // return written chars without terminating \0
  return (int)idx;
}
    121c:	01812503          	lw	a0,24(sp)
    1220:	04c12083          	lw	ra,76(sp)
    1224:	04812403          	lw	s0,72(sp)
    1228:	04412483          	lw	s1,68(sp)
    122c:	05010113          	addi	sp,sp,80
    1230:	00008067          	ret
D:\Files\Pango\RISCV-SOC\RISC-V\rtl\SparrowRV\bsp\bsp_app\obj/../lib/driver/src/printf.c:732
          flags |= FLAGS_UPPERCASE;
    1234:	0206e693          	ori	a3,a3,32
D:\Files\Pango\RISCV-SOC\RISC-V\rtl\SparrowRV\bsp\bsp_app\obj/../lib/driver/src/printf.c:718
          base = 16U;
    1238:	01000593          	li	a1,16
D:\Files\Pango\RISCV-SOC\RISC-V\rtl\SparrowRV\bsp\bsp_app\obj/../lib/driver/src/printf.c:737
          flags &= ~(FLAGS_PLUS | FLAGS_SPACE);
    123c:	ff36f613          	andi	a2,a3,-13
D:\Files\Pango\RISCV-SOC\RISC-V\rtl\SparrowRV\bsp\bsp_app\obj/../lib/driver/src/printf.c:741
        if (flags & FLAGS_PRECISION) {
    1240:	4006f793          	andi	a5,a3,1024
    1244:	ac0790e3          	bnez	a5,d04 <_vsnprintf+0x3c8>
D:\Files\Pango\RISCV-SOC\RISC-V\rtl\SparrowRV\bsp\bsp_app\obj/../lib/driver/src/printf.c:765
          if (flags & FLAGS_LONG_LONG) {
    1248:	20067793          	andi	a5,a2,512
    124c:	ba079ce3          	bnez	a5,e04 <_vsnprintf+0x4c8>
D:\Files\Pango\RISCV-SOC\RISC-V\rtl\SparrowRV\bsp\bsp_app\obj/../lib/driver/src/printf.c:770
          else if (flags & FLAGS_LONG) {
    1250:	10067793          	andi	a5,a2,256
    1254:	be079ce3          	bnez	a5,e4c <_vsnprintf+0x510>
D:\Files\Pango\RISCV-SOC\RISC-V\rtl\SparrowRV\bsp\bsp_app\obj/../lib/driver/src/printf.c:774
            const unsigned int value = (flags & FLAGS_CHAR) ? (unsigned char)va_arg(va, unsigned int) : (flags & FLAGS_SHORT) ? (unsigned short int)va_arg(va, unsigned int) : va_arg(va, unsigned int);
    1258:	04067793          	andi	a5,a2,64
    125c:	c20788e3          	beqz	a5,e8c <_vsnprintf+0x550>
    1260:	02c12783          	lw	a5,44(sp)
    1264:	0007c703          	lbu	a4,0(a5)
    1268:	00478793          	addi	a5,a5,4
    126c:	02f12623          	sw	a5,44(sp)
D:\Files\Pango\RISCV-SOC\RISC-V\rtl\SparrowRV\bsp\bsp_app\obj/../lib/driver/src/printf.c:775 (discriminator 8)
            idx = _ntoa_long(out, buffer, idx, maxlen, value, false, base, precision, width, flags);
    1270:	00c12623          	sw	a2,12(sp)
    1274:	00812423          	sw	s0,8(sp)
    1278:	00912223          	sw	s1,4(sp)
    127c:	00b12023          	sw	a1,0(sp)
    1280:	00000793          	li	a5,0
    1284:	02012683          	lw	a3,32(sp)
    1288:	01812603          	lw	a2,24(sp)
    128c:	02412583          	lw	a1,36(sp)
    1290:	02812503          	lw	a0,40(sp)
    1294:	c5cff0ef          	jal	ra,6f0 <_ntoa_long>
    1298:	00a12c23          	sw	a0,24(sp)
    129c:	a31ff06f          	j	ccc <_vsnprintf+0x390>
D:\Files\Pango\RISCV-SOC\RISC-V\rtl\SparrowRV\bsp\bsp_app\obj/../lib/driver/src/printf.c:804
          while (l++ < width) {
    12a0:	01812483          	lw	s1,24(sp)
    12a4:	cd1ff06f          	j	f74 <_vsnprintf+0x638>
D:\Files\Pango\RISCV-SOC\RISC-V\rtl\SparrowRV\bsp\bsp_app\obj/../lib/driver/src/printf.c:809
        out((char)va_arg(va, int), buffer, idx++, maxlen);
    12a8:	00912c23          	sw	s1,24(sp)
    12ac:	cf5ff06f          	j	fa0 <_vsnprintf+0x664>
D:\Files\Pango\RISCV-SOC\RISC-V\rtl\SparrowRV\bsp\bsp_app\obj/../lib/driver/src/printf.c:828
          while (l++ < width) {
    12b0:	02f12c23          	sw	a5,56(sp)
    12b4:	dd5ff06f          	j	1088 <__stack_size+0x88>
D:\Files\Pango\RISCV-SOC\RISC-V\rtl\SparrowRV\bsp\bsp_app\obj/../lib/driver/src/printf.c:718
          base = 16U;
    12b8:	01000593          	li	a1,16
    12bc:	f81ff06f          	j	123c <__stack_size+0x23c>
D:\Files\Pango\RISCV-SOC\RISC-V\rtl\SparrowRV\bsp\bsp_app\obj/../lib/driver/src/printf.c:721
          base =  8U;
    12c0:	00800593          	li	a1,8
    12c4:	f79ff06f          	j	123c <__stack_size+0x23c>
D:\Files\Pango\RISCV-SOC\RISC-V\rtl\SparrowRV\bsp\bsp_app\obj/../lib/driver/src/printf.c:724
          base =  2U;
    12c8:	00200593          	li	a1,2
D:\Files\Pango\RISCV-SOC\RISC-V\rtl\SparrowRV\bsp\bsp_app\obj/../lib/driver/src/printf.c:736
        if ((*format != 'i') && (*format != 'd')) {
    12cc:	f71ff06f          	j	123c <__stack_size+0x23c>

000012d0 <init_uart0_printf>:
init_uart0_printf():
D:\Files\Pango\RISCV-SOC\RISC-V\rtl\SparrowRV\bsp\bsp_app\obj/../lib/driver/src/printf.c:43
{
    12d0:	ff410113          	addi	sp,sp,-12
    12d4:	00112423          	sw	ra,8(sp)
    12d8:	00812223          	sw	s0,4(sp)
    12dc:	00050413          	mv	s0,a0
D:\Files\Pango\RISCV-SOC\RISC-V\rtl\SparrowRV\bsp\bsp_app\obj/../lib/driver/src/printf.c:45
  fpioa_perips_out_set(UART0_TX, uart_tx_fpioa_port);//也可以自定义
    12e0:	00700513          	li	a0,7
    12e4:	f69fe0ef          	jal	ra,24c <fpioa_perips_out_set>
D:\Files\Pango\RISCV-SOC\RISC-V\rtl\SparrowRV\bsp\bsp_app\obj/../lib/driver/src/printf.c:47
  uart_band_ctrl(UART0,band);
    12e8:	00040593          	mv	a1,s0
    12ec:	40000537          	lui	a0,0x40000
    12f0:	85cff0ef          	jal	ra,34c <uart_band_ctrl>
D:\Files\Pango\RISCV-SOC\RISC-V\rtl\SparrowRV\bsp\bsp_app\obj/../lib/driver/src/printf.c:49
  uart_enable_ctrl(UART0, ENABLE);
    12f4:	00100593          	li	a1,1
    12f8:	40000537          	lui	a0,0x40000
    12fc:	82cff0ef          	jal	ra,328 <uart_enable_ctrl>
D:\Files\Pango\RISCV-SOC\RISC-V\rtl\SparrowRV\bsp\bsp_app\obj/../lib/driver/src/printf.c:51
}
    1300:	00812083          	lw	ra,8(sp)
    1304:	00412403          	lw	s0,4(sp)
    1308:	00c10113          	addi	sp,sp,12
    130c:	00008067          	ret

00001310 <_putchar>:
_putchar():
D:\Files\Pango\RISCV-SOC\RISC-V\rtl\SparrowRV\bsp\bsp_app\obj/../lib/driver/src/printf.c:57
  while (SYS_RWMEM_W(UART_STATUS(UART0)) & 0x1); //等待上一个操作结束
    1310:	40000737          	lui	a4,0x40000
D:\Files\Pango\RISCV-SOC\RISC-V\rtl\SparrowRV\bsp\bsp_app\obj/../lib/driver/src/printf.c:57 (discriminator 1)
    1314:	00472783          	lw	a5,4(a4) # 40000004 <_sp+0x1fffc004>
    1318:	0017f793          	andi	a5,a5,1
    131c:	fe079ce3          	bnez	a5,1314 <_putchar+0x4>
D:\Files\Pango\RISCV-SOC\RISC-V\rtl\SparrowRV\bsp\bsp_app\obj/../lib/driver/src/printf.c:58
  SYS_RWMEM_W(UART_TXDATA(UART0)) = character;
    1320:	400007b7          	lui	a5,0x40000
    1324:	00a7a623          	sw	a0,12(a5) # 4000000c <_sp+0x1fffc00c>
D:\Files\Pango\RISCV-SOC\RISC-V\rtl\SparrowRV\bsp\bsp_app\obj/../lib/driver/src/printf.c:60
  write_csr(msprint, character);//msprint
    1328:	34651073          	csrw	mintstatus,a0
D:\Files\Pango\RISCV-SOC\RISC-V\rtl\SparrowRV\bsp\bsp_app\obj/../lib/driver/src/printf.c:61
}
    132c:	00008067          	ret

00001330 <_out_char>:
_out_char():
D:\Files\Pango\RISCV-SOC\RISC-V\rtl\SparrowRV\bsp\bsp_app\obj/../lib/driver/src/printf.c:176
  if (character) {
    1330:	00051463          	bnez	a0,1338 <_out_char+0x8>
    1334:	00008067          	ret
D:\Files\Pango\RISCV-SOC\RISC-V\rtl\SparrowRV\bsp\bsp_app\obj/../lib/driver/src/printf.c:174
{
    1338:	ff410113          	addi	sp,sp,-12
    133c:	00112423          	sw	ra,8(sp)
D:\Files\Pango\RISCV-SOC\RISC-V\rtl\SparrowRV\bsp\bsp_app\obj/../lib/driver/src/printf.c:177
    _putchar(character);
    1340:	fd1ff0ef          	jal	ra,1310 <_putchar>
D:\Files\Pango\RISCV-SOC\RISC-V\rtl\SparrowRV\bsp\bsp_app\obj/../lib/driver/src/printf.c:179
}
    1344:	00812083          	lw	ra,8(sp)
    1348:	00c10113          	addi	sp,sp,12
    134c:	00008067          	ret

00001350 <printf_>:
printf_():
D:\Files\Pango\RISCV-SOC\RISC-V\rtl\SparrowRV\bsp\bsp_app\obj/../lib/driver/src/printf.c:887


///////////////////////////////////////////////////////////////////////////////

int printf_(const char* format, ...)
{
    1350:	fd810113          	addi	sp,sp,-40
    1354:	00112823          	sw	ra,16(sp)
    1358:	00b12a23          	sw	a1,20(sp)
    135c:	00c12c23          	sw	a2,24(sp)
    1360:	00d12e23          	sw	a3,28(sp)
    1364:	02e12023          	sw	a4,32(sp)
    1368:	02f12223          	sw	a5,36(sp)
D:\Files\Pango\RISCV-SOC\RISC-V\rtl\SparrowRV\bsp\bsp_app\obj/../lib/driver/src/printf.c:889
  va_list va;
  va_start(va, format);
    136c:	01410713          	addi	a4,sp,20
    1370:	00e12223          	sw	a4,4(sp)
D:\Files\Pango\RISCV-SOC\RISC-V\rtl\SparrowRV\bsp\bsp_app\obj/../lib/driver/src/printf.c:891
  char buffer[1];
  const int ret = _vsnprintf(_out_char, buffer, (size_t)-1, format, va);
    1374:	00050693          	mv	a3,a0
    1378:	fff00613          	li	a2,-1
    137c:	00010593          	mv	a1,sp
    1380:	00001537          	lui	a0,0x1
    1384:	33050513          	addi	a0,a0,816 # 1330 <_out_char>
    1388:	db4ff0ef          	jal	ra,93c <_vsnprintf>
D:\Files\Pango\RISCV-SOC\RISC-V\rtl\SparrowRV\bsp\bsp_app\obj/../lib/driver/src/printf.c:894
  va_end(va);
  return ret;
}
    138c:	01012083          	lw	ra,16(sp)
    1390:	02810113          	addi	sp,sp,40
    1394:	00008067          	ret

00001398 <get_cmd>:
get_cmd():
D:\Files\Pango\RISCV-SOC\RISC-V\rtl\SparrowRV\bsp\bsp_app\obj/../app/main.c:203
    }

    return 0;
}

void get_cmd(uint8_t *cmd) {
    1398:	fec10113          	addi	sp,sp,-20
    139c:	00112823          	sw	ra,16(sp)
    13a0:	00812623          	sw	s0,12(sp)
    13a4:	00912423          	sw	s1,8(sp)
    13a8:	00a12023          	sw	a0,0(sp)
D:\Files\Pango\RISCV-SOC\RISC-V\rtl\SparrowRV\bsp\bsp_app\obj/../app/main.c:204
    int j = 0;
    13ac:	00000413          	li	s0,0
D:\Files\Pango\RISCV-SOC\RISC-V\rtl\SparrowRV\bsp\bsp_app\obj/../app/main.c:205
    while(j<CMD_LEN+PARAM_LEN) {
    13b0:	00800493          	li	s1,8
D:\Files\Pango\RISCV-SOC\RISC-V\rtl\SparrowRV\bsp\bsp_app\obj/../app/main.c:206
        if(uart_recv_flg(UART0)) {
    13b4:	40000537          	lui	a0,0x40000
    13b8:	fbdfe0ef          	jal	ra,374 <uart_recv_flg>
    13bc:	00051e63          	bnez	a0,13d8 <get_cmd+0x40>
D:\Files\Pango\RISCV-SOC\RISC-V\rtl\SparrowRV\bsp\bsp_app\obj/../app/main.c:205
    while(j<CMD_LEN+PARAM_LEN) {
    13c0:	fe84dae3          	bge	s1,s0,13b4 <get_cmd+0x1c>
D:\Files\Pango\RISCV-SOC\RISC-V\rtl\SparrowRV\bsp\bsp_app\obj/../app/main.c:211
            cmd[j] = uart_recv_date(UART0);
            j++;
        }
    }
}
    13c4:	01012083          	lw	ra,16(sp)
    13c8:	00c12403          	lw	s0,12(sp)
    13cc:	00812483          	lw	s1,8(sp)
    13d0:	01410113          	addi	sp,sp,20
    13d4:	00008067          	ret
D:\Files\Pango\RISCV-SOC\RISC-V\rtl\SparrowRV\bsp\bsp_app\obj/../app/main.c:207
            cmd[j] = uart_recv_date(UART0);
    13d8:	00012783          	lw	a5,0(sp)
    13dc:	008787b3          	add	a5,a5,s0
    13e0:	00f12223          	sw	a5,4(sp)
    13e4:	40000537          	lui	a0,0x40000
    13e8:	f75fe0ef          	jal	ra,35c <uart_recv_date>
    13ec:	00412783          	lw	a5,4(sp)
    13f0:	00a78023          	sb	a0,0(a5)
D:\Files\Pango\RISCV-SOC\RISC-V\rtl\SparrowRV\bsp\bsp_app\obj/../app/main.c:208
            j++;
    13f4:	00140413          	addi	s0,s0,1
D:\Files\Pango\RISCV-SOC\RISC-V\rtl\SparrowRV\bsp\bsp_app\obj/../app/main.c:205
    while(j<CMD_LEN+PARAM_LEN) {
    13f8:	fa84dee3          	bge	s1,s0,13b4 <get_cmd+0x1c>
    13fc:	fc9ff06f          	j	13c4 <get_cmd+0x2c>

00001400 <clear_cmd>:
clear_cmd():
D:\Files\Pango\RISCV-SOC\RISC-V\rtl\SparrowRV\bsp\bsp_app\obj/../app/main.c:214
;

void clear_cmd(uint8_t *cmd, int len) {
    1400:	ff410113          	addi	sp,sp,-12
    1404:	00112423          	sw	ra,8(sp)
D:\Files\Pango\RISCV-SOC\RISC-V\rtl\SparrowRV\bsp\bsp_app\obj/../app/main.c:215
    for (int i = 0; i < len; i++) {
    1408:	00b05c63          	blez	a1,1420 <clear_cmd+0x20>
    140c:	00050793          	mv	a5,a0
    1410:	00b505b3          	add	a1,a0,a1
D:\Files\Pango\RISCV-SOC\RISC-V\rtl\SparrowRV\bsp\bsp_app\obj/../app/main.c:216 (discriminator 3)
        cmd[i] = 0;
    1414:	00078023          	sb	zero,0(a5)
    1418:	00178793          	addi	a5,a5,1
D:\Files\Pango\RISCV-SOC\RISC-V\rtl\SparrowRV\bsp\bsp_app\obj/../app/main.c:215 (discriminator 3)
    for (int i = 0; i < len; i++) {
    141c:	feb79ce3          	bne	a5,a1,1414 <clear_cmd+0x14>
D:\Files\Pango\RISCV-SOC\RISC-V\rtl\SparrowRV\bsp\bsp_app\obj/../app/main.c:218
    }
    printf("cmd completed\r\n");
    1420:	20000537          	lui	a0,0x20000
    1424:	35050513          	addi	a0,a0,848 # 20000350 <_sram_base_addr+0x350>
    1428:	f29ff0ef          	jal	ra,1350 <printf_>
D:\Files\Pango\RISCV-SOC\RISC-V\rtl\SparrowRV\bsp\bsp_app\obj/../app/main.c:219
}
    142c:	00812083          	lw	ra,8(sp)
    1430:	00c10113          	addi	sp,sp,12
    1434:	00008067          	ret

00001438 <get_param>:
get_param():
D:\Files\Pango\RISCV-SOC\RISC-V\rtl\SparrowRV\bsp\bsp_app\obj/../app/main.c:222
;

uint32_t get_param(uint8_t *value) {
    1438:	ff410113          	addi	sp,sp,-12
    143c:	00112423          	sw	ra,8(sp)
    1440:	00812223          	sw	s0,4(sp)
D:\Files\Pango\RISCV-SOC\RISC-V\rtl\SparrowRV\bsp\bsp_app\obj/../app/main.c:227
    int i = 0;
    uint8_t num = 0;
    uint32_t param = 0;

    for (; i < PARAM_LEN; i++) {
    1444:	00450713          	addi	a4,a0,4
D:\Files\Pango\RISCV-SOC\RISC-V\rtl\SparrowRV\bsp\bsp_app\obj/../app/main.c:225
    uint32_t param = 0;
    1448:	00000413          	li	s0,0
D:\Files\Pango\RISCV-SOC\RISC-V\rtl\SparrowRV\bsp\bsp_app\obj/../app/main.c:229 (discriminator 2)
        num = *(value + i) - '0';
        param = num + param * 10;
    144c:	00241793          	slli	a5,s0,0x2
    1450:	00878433          	add	s0,a5,s0
    1454:	00141793          	slli	a5,s0,0x1
D:\Files\Pango\RISCV-SOC\RISC-V\rtl\SparrowRV\bsp\bsp_app\obj/../app/main.c:228 (discriminator 2)
        num = *(value + i) - '0';
    1458:	00054403          	lbu	s0,0(a0)
    145c:	fd040413          	addi	s0,s0,-48
D:\Files\Pango\RISCV-SOC\RISC-V\rtl\SparrowRV\bsp\bsp_app\obj/../app/main.c:229 (discriminator 2)
        param = num + param * 10;
    1460:	0ff47413          	andi	s0,s0,255
    1464:	00f40433          	add	s0,s0,a5
    1468:	00150513          	addi	a0,a0,1
D:\Files\Pango\RISCV-SOC\RISC-V\rtl\SparrowRV\bsp\bsp_app\obj/../app/main.c:227 (discriminator 2)
    for (; i < PARAM_LEN; i++) {
    146c:	fee510e3          	bne	a0,a4,144c <get_param+0x14>
D:\Files\Pango\RISCV-SOC\RISC-V\rtl\SparrowRV\bsp\bsp_app\obj/../app/main.c:232
    }

    printf("param_value is %d\r\n", param);
    1470:	00040593          	mv	a1,s0
    1474:	20000537          	lui	a0,0x20000
    1478:	36050513          	addi	a0,a0,864 # 20000360 <_sram_base_addr+0x360>
    147c:	ed5ff0ef          	jal	ra,1350 <printf_>
D:\Files\Pango\RISCV-SOC\RISC-V\rtl\SparrowRV\bsp\bsp_app\obj/../app/main.c:234
    return param;
}
    1480:	00040513          	mv	a0,s0
    1484:	00812083          	lw	ra,8(sp)
    1488:	00412403          	lw	s0,4(sp)
    148c:	00c10113          	addi	sp,sp,12
    1490:	00008067          	ret

00001494 <main>:
main():
D:\Files\Pango\RISCV-SOC\RISC-V\rtl\SparrowRV\bsp\bsp_app\obj/../app/main.c:37
int main() {
    1494:	fd410113          	addi	sp,sp,-44
    1498:	02112423          	sw	ra,40(sp)
    149c:	02812223          	sw	s0,36(sp)
D:\Files\Pango\RISCV-SOC\RISC-V\rtl\SparrowRV\bsp\bsp_app\obj/../app/main.c:38
    init_uart0_printf(115200, UART0_TX); //设置波特率
    14a0:	00700593          	li	a1,7
    14a4:	0001c537          	lui	a0,0x1c
    14a8:	20050513          	addi	a0,a0,512 # 1c200 <_app_prog_size+0x14200>
    14ac:	e25ff0ef          	jal	ra,12d0 <init_uart0_printf>
D:\Files\Pango\RISCV-SOC\RISC-V\rtl\SparrowRV\bsp\bsp_app\obj/../app/main.c:39
    printf("%s", "Hello world SparrowRV\r\n");
    14b0:	200005b7          	lui	a1,0x20000
    14b4:	38058593          	addi	a1,a1,896 # 20000380 <_sram_base_addr+0x380>
    14b8:	20000437          	lui	s0,0x20000
    14bc:	39840513          	addi	a0,s0,920 # 20000398 <_sram_base_addr+0x398>
    14c0:	e91ff0ef          	jal	ra,1350 <printf_>
D:\Files\Pango\RISCV-SOC\RISC-V\rtl\SparrowRV\bsp\bsp_app\obj/../app/main.c:40
    printf("%s", "--------------\r\n");
    14c4:	200005b7          	lui	a1,0x20000
    14c8:	39c58593          	addi	a1,a1,924 # 2000039c <_sram_base_addr+0x39c>
    14cc:	39840513          	addi	a0,s0,920
    14d0:	e81ff0ef          	jal	ra,1350 <printf_>
D:\Files\Pango\RISCV-SOC\RISC-V\rtl\SparrowRV\bsp\bsp_app\obj/../app/main.c:41
    fpioa_perips_in_set(UART0_RX, UART0_RX); //FPIOA[0]为RX
    14d4:	00200593          	li	a1,2
    14d8:	00200513          	li	a0,2
    14dc:	d85fe0ef          	jal	ra,260 <fpioa_perips_in_set>
D:\Files\Pango\RISCV-SOC\RISC-V\rtl\SparrowRV\bsp\bsp_app\obj/../app/main.c:43
    uint32_t amp = 0;
    14e0:	00012823          	sw	zero,16(sp)
D:\Files\Pango\RISCV-SOC\RISC-V\rtl\SparrowRV\bsp\bsp_app\obj/../app/main.c:44
    uint32_t freq = 0;
    14e4:	00012623          	sw	zero,12(sp)
D:\Files\Pango\RISCV-SOC\RISC-V\rtl\SparrowRV\bsp\bsp_app\obj/../app/main.c:45
    uint32_t min = 0;
    14e8:	00012423          	sw	zero,8(sp)
D:\Files\Pango\RISCV-SOC\RISC-V\rtl\SparrowRV\bsp\bsp_app\obj/../app/main.c:46
    uint32_t phase = 0;
    14ec:	00012223          	sw	zero,4(sp)
D:\Files\Pango\RISCV-SOC\RISC-V\rtl\SparrowRV\bsp\bsp_app\obj/../app/main.c:47
    uint32_t type = 0;
    14f0:	00012023          	sw	zero,0(sp)
D:\Files\Pango\RISCV-SOC\RISC-V\rtl\SparrowRV\bsp\bsp_app\obj/../app/main.c:49
    dds_set_freq(3579139);
    14f4:	0036a537          	lui	a0,0x36a
    14f8:	d0350513          	addi	a0,a0,-765 # 369d03 <_app_prog_size+0x361d03>
    14fc:	c61fe0ef          	jal	ra,15c <dds_set_freq>
D:\Files\Pango\RISCV-SOC\RISC-V\rtl\SparrowRV\bsp\bsp_app\obj/../app/main.c:50
    dso_set_v_scale(0x12);
    1500:	01200513          	li	a0,18
    1504:	ce9fe0ef          	jal	ra,1ec <dso_set_v_scale>
    1508:	0280006f          	j	1530 <main+0x9c>
D:\Files\Pango\RISCV-SOC\RISC-V\rtl\SparrowRV\bsp\bsp_app\obj/../app/main.c:65
                    dds_set_amp(param_value);
    150c:	c45fe0ef          	jal	ra,150 <dds_set_amp>
D:\Files\Pango\RISCV-SOC\RISC-V\rtl\SparrowRV\bsp\bsp_app\obj/../app/main.c:95
                printf("cmd is dds, func is %d, value is %d\r\n",buf[4],param_value);
    1510:	00040613          	mv	a2,s0
    1514:	01814583          	lbu	a1,24(sp)
    1518:	20000537          	lui	a0,0x20000
    151c:	3fc50513          	addi	a0,a0,1020 # 200003fc <_sram_base_addr+0x3fc>
    1520:	e31ff0ef          	jal	ra,1350 <printf_>
D:\Files\Pango\RISCV-SOC\RISC-V\rtl\SparrowRV\bsp\bsp_app\obj/../app/main.c:197
        clear_cmd(buf,LEN);
    1524:	00a00593          	li	a1,10
    1528:	01410513          	addi	a0,sp,20
    152c:	ed5ff0ef          	jal	ra,1400 <clear_cmd>
D:\Files\Pango\RISCV-SOC\RISC-V\rtl\SparrowRV\bsp\bsp_app\obj/../app/main.c:55
        get_cmd(&buf[0]);
    1530:	01410513          	addi	a0,sp,20
    1534:	e65ff0ef          	jal	ra,1398 <get_cmd>
D:\Files\Pango\RISCV-SOC\RISC-V\rtl\SparrowRV\bsp\bsp_app\obj/../app/main.c:56
        printf("cmd get %c%c%c \r\n",buf[0],buf[1],buf[2]);
    1538:	01614683          	lbu	a3,22(sp)
    153c:	01514603          	lbu	a2,21(sp)
    1540:	01414583          	lbu	a1,20(sp)
    1544:	20000537          	lui	a0,0x20000
    1548:	3b050513          	addi	a0,a0,944 # 200003b0 <_sram_base_addr+0x3b0>
    154c:	e05ff0ef          	jal	ra,1350 <printf_>
D:\Files\Pango\RISCV-SOC\RISC-V\rtl\SparrowRV\bsp\bsp_app\obj/../app/main.c:57
        uint32_t param_value = get_param(&buf[5]);
    1550:	01910513          	addi	a0,sp,25
    1554:	ee5ff0ef          	jal	ra,1438 <get_param>
    1558:	00050413          	mv	s0,a0
D:\Files\Pango\RISCV-SOC\RISC-V\rtl\SparrowRV\bsp\bsp_app\obj/../app/main.c:60
        if(buf[0] == 'c' && buf[1] == 'm' && buf[2]=='d') {
    155c:	01414703          	lbu	a4,20(sp)
    1560:	06300793          	li	a5,99
    1564:	fcf710e3          	bne	a4,a5,1524 <main+0x90>
D:\Files\Pango\RISCV-SOC\RISC-V\rtl\SparrowRV\bsp\bsp_app\obj/../app/main.c:60 (discriminator 1)
    1568:	01514703          	lbu	a4,21(sp)
    156c:	06d00793          	li	a5,109
    1570:	faf71ae3          	bne	a4,a5,1524 <main+0x90>
D:\Files\Pango\RISCV-SOC\RISC-V\rtl\SparrowRV\bsp\bsp_app\obj/../app/main.c:60 (discriminator 2)
    1574:	01614703          	lbu	a4,22(sp)
    1578:	06400793          	li	a5,100
    157c:	faf714e3          	bne	a4,a5,1524 <main+0x90>
D:\Files\Pango\RISCV-SOC\RISC-V\rtl\SparrowRV\bsp\bsp_app\obj/../app/main.c:61
            switch(buf[3]) {
    1580:	01714783          	lbu	a5,23(sp)
    1584:	03200713          	li	a4,50
    1588:	0ce78a63          	beq	a5,a4,165c <main+0x1c8>
    158c:	03300713          	li	a4,51
    1590:	1ae78663          	beq	a5,a4,173c <main+0x2a8>
    1594:	03100713          	li	a4,49
    1598:	f8e796e3          	bne	a5,a4,1524 <main+0x90>
D:\Files\Pango\RISCV-SOC\RISC-V\rtl\SparrowRV\bsp\bsp_app\obj/../app/main.c:63
                switch(buf[4]) {
    159c:	01814783          	lbu	a5,24(sp)
    15a0:	fcf78793          	addi	a5,a5,-49
    15a4:	0ff7f693          	andi	a3,a5,255
    15a8:	00500713          	li	a4,5
    15ac:	f6d762e3          	bltu	a4,a3,1510 <main+0x7c>
    15b0:	00269793          	slli	a5,a3,0x2
    15b4:	20000737          	lui	a4,0x20000
    15b8:	19470713          	addi	a4,a4,404 # 20000194 <_sram_base_addr+0x194>
    15bc:	00e787b3          	add	a5,a5,a4
    15c0:	0007a783          	lw	a5,0(a5)
    15c4:	00078067          	jr	a5
D:\Files\Pango\RISCV-SOC\RISC-V\rtl\SparrowRV\bsp\bsp_app\obj/../app/main.c:68
                    tmp = (float)param_value*35791.39413;  //DAC_FREQ = 120MHz
    15c8:	3c8010ef          	jal	ra,2990 <__floatunsisf>
    15cc:	4e8010ef          	jal	ra,2ab4 <__extendsfdf2>
    15d0:	200007b7          	lui	a5,0x20000
    15d4:	3787a603          	lw	a2,888(a5) # 20000378 <_sram_base_addr+0x378>
    15d8:	37c7a683          	lw	a3,892(a5)
    15dc:	3f1000ef          	jal	ra,21cc <__muldf3>
    15e0:	5d4010ef          	jal	ra,2bb4 <__truncdfsf2>
D:\Files\Pango\RISCV-SOC\RISC-V\rtl\SparrowRV\bsp\bsp_app\obj/../app/main.c:69
                    param_value = (uint32_t)tmp;
    15e4:	348010ef          	jal	ra,292c <__fixunssfsi>
    15e8:	00050413          	mv	s0,a0
D:\Files\Pango\RISCV-SOC\RISC-V\rtl\SparrowRV\bsp\bsp_app\obj/../app/main.c:70
                    printf("set freq %d",param_value);
    15ec:	00050593          	mv	a1,a0
    15f0:	20000537          	lui	a0,0x20000
    15f4:	3c450513          	addi	a0,a0,964 # 200003c4 <_sram_base_addr+0x3c4>
    15f8:	d59ff0ef          	jal	ra,1350 <printf_>
D:\Files\Pango\RISCV-SOC\RISC-V\rtl\SparrowRV\bsp\bsp_app\obj/../app/main.c:71
                    dds_set_freq(param_value);
    15fc:	00040513          	mv	a0,s0
    1600:	b5dfe0ef          	jal	ra,15c <dds_set_freq>
D:\Files\Pango\RISCV-SOC\RISC-V\rtl\SparrowRV\bsp\bsp_app\obj/../app/main.c:72
                    break;
    1604:	f0dff06f          	j	1510 <main+0x7c>
D:\Files\Pango\RISCV-SOC\RISC-V\rtl\SparrowRV\bsp\bsp_app\obj/../app/main.c:74
                    dds_set_min(param_value);
    1608:	b61fe0ef          	jal	ra,168 <dds_set_min>
D:\Files\Pango\RISCV-SOC\RISC-V\rtl\SparrowRV\bsp\bsp_app\obj/../app/main.c:75
                    break;
    160c:	f05ff06f          	j	1510 <main+0x7c>
D:\Files\Pango\RISCV-SOC\RISC-V\rtl\SparrowRV\bsp\bsp_app\obj/../app/main.c:77
                    dds_set_phase(param_value);
    1610:	b65fe0ef          	jal	ra,174 <dds_set_phase>
D:\Files\Pango\RISCV-SOC\RISC-V\rtl\SparrowRV\bsp\bsp_app\obj/../app/main.c:78
                    break;
    1614:	efdff06f          	j	1510 <main+0x7c>
D:\Files\Pango\RISCV-SOC\RISC-V\rtl\SparrowRV\bsp\bsp_app\obj/../app/main.c:80
                    dds_wavetype(param_value);
    1618:	b69fe0ef          	jal	ra,180 <dds_wavetype>
D:\Files\Pango\RISCV-SOC\RISC-V\rtl\SparrowRV\bsp\bsp_app\obj/../app/main.c:81
                    break;
    161c:	ef5ff06f          	j	1510 <main+0x7c>
D:\Files\Pango\RISCV-SOC\RISC-V\rtl\SparrowRV\bsp\bsp_app\obj/../app/main.c:83
                    dds_get_state(&amp, &freq, &min, &phase, &type);
    1620:	00010713          	mv	a4,sp
    1624:	00410693          	addi	a3,sp,4
    1628:	00810613          	addi	a2,sp,8
    162c:	00c10593          	addi	a1,sp,12
    1630:	01010513          	addi	a0,sp,16
    1634:	b59fe0ef          	jal	ra,18c <dds_get_state>
D:\Files\Pango\RISCV-SOC\RISC-V\rtl\SparrowRV\bsp\bsp_app\obj/../app/main.c:84
                    printf("amp:%d freq:%d min:%d phase:%d type:%d \r\n",amp,freq,min,phase, type);
    1638:	00012783          	lw	a5,0(sp)
    163c:	00412703          	lw	a4,4(sp)
    1640:	00812683          	lw	a3,8(sp)
    1644:	00c12603          	lw	a2,12(sp)
    1648:	01012583          	lw	a1,16(sp)
    164c:	20000537          	lui	a0,0x20000
    1650:	3d050513          	addi	a0,a0,976 # 200003d0 <_sram_base_addr+0x3d0>
    1654:	cfdff0ef          	jal	ra,1350 <printf_>
D:\Files\Pango\RISCV-SOC\RISC-V\rtl\SparrowRV\bsp\bsp_app\obj/../app/main.c:85
                    break;
    1658:	eb9ff06f          	j	1510 <main+0x7c>
D:\Files\Pango\RISCV-SOC\RISC-V\rtl\SparrowRV\bsp\bsp_app\obj/../app/main.c:98
                    switch(buf[4]) {
    165c:	01814783          	lbu	a5,24(sp)
    1660:	fcf78793          	addi	a5,a5,-49
    1664:	0ff7f693          	andi	a3,a5,255
    1668:	03200713          	li	a4,50
    166c:	02d76063          	bltu	a4,a3,168c <main+0x1f8>
    1670:	00269793          	slli	a5,a3,0x2
    1674:	20000737          	lui	a4,0x20000
    1678:	1ac70713          	addi	a4,a4,428 # 200001ac <_sram_base_addr+0x1ac>
    167c:	00e787b3          	add	a5,a5,a4
    1680:	0007a783          	lw	a5,0(a5)
    1684:	00078067          	jr	a5
D:\Files\Pango\RISCV-SOC\RISC-V\rtl\SparrowRV\bsp\bsp_app\obj/../app/main.c:100
                        dso_set_trig_level(param_value);
    1688:	b35fe0ef          	jal	ra,1bc <dso_set_trig_level>
D:\Files\Pango\RISCV-SOC\RISC-V\rtl\SparrowRV\bsp\bsp_app\obj/../app/main.c:139
                    printf("cmd is dso, func is %d, value is %d\r\n",buf[4],param_value);
    168c:	00040613          	mv	a2,s0
    1690:	01814583          	lbu	a1,24(sp)
    1694:	20000537          	lui	a0,0x20000
    1698:	45450513          	addi	a0,a0,1108 # 20000454 <_sram_base_addr+0x454>
    169c:	cb5ff0ef          	jal	ra,1350 <printf_>
D:\Files\Pango\RISCV-SOC\RISC-V\rtl\SparrowRV\bsp\bsp_app\obj/../app/main.c:140
                    break;
    16a0:	e85ff06f          	j	1524 <main+0x90>
D:\Files\Pango\RISCV-SOC\RISC-V\rtl\SparrowRV\bsp\bsp_app\obj/../app/main.c:103
                        dso_set_deci_rate(param_value);
    16a4:	b25fe0ef          	jal	ra,1c8 <dso_set_deci_rate>
D:\Files\Pango\RISCV-SOC\RISC-V\rtl\SparrowRV\bsp\bsp_app\obj/../app/main.c:104
                        break;
    16a8:	fe5ff06f          	j	168c <main+0x1f8>
D:\Files\Pango\RISCV-SOC\RISC-V\rtl\SparrowRV\bsp\bsp_app\obj/../app/main.c:106
                        dso_set_wave_run(param_value);
    16ac:	b29fe0ef          	jal	ra,1d4 <dso_set_wave_run>
D:\Files\Pango\RISCV-SOC\RISC-V\rtl\SparrowRV\bsp\bsp_app\obj/../app/main.c:107
                        break;
    16b0:	fddff06f          	j	168c <main+0x1f8>
D:\Files\Pango\RISCV-SOC\RISC-V\rtl\SparrowRV\bsp\bsp_app\obj/../app/main.c:109
                        dso_set_trig_edge(param_value);
    16b4:	b2dfe0ef          	jal	ra,1e0 <dso_set_trig_edge>
D:\Files\Pango\RISCV-SOC\RISC-V\rtl\SparrowRV\bsp\bsp_app\obj/../app/main.c:110
                        break;
    16b8:	fd5ff06f          	j	168c <main+0x1f8>
D:\Files\Pango\RISCV-SOC\RISC-V\rtl\SparrowRV\bsp\bsp_app\obj/../app/main.c:112
                        dso_set_v_scale(param_value);
    16bc:	b31fe0ef          	jal	ra,1ec <dso_set_v_scale>
D:\Files\Pango\RISCV-SOC\RISC-V\rtl\SparrowRV\bsp\bsp_app\obj/../app/main.c:113
                        break;
    16c0:	fcdff06f          	j	168c <main+0x1f8>
D:\Files\Pango\RISCV-SOC\RISC-V\rtl\SparrowRV\bsp\bsp_app\obj/../app/main.c:115
                        dso_set_fft_en(param_value);
    16c4:	b35fe0ef          	jal	ra,1f8 <dso_set_fft_en>
D:\Files\Pango\RISCV-SOC\RISC-V\rtl\SparrowRV\bsp\bsp_app\obj/../app/main.c:116
                        break;
    16c8:	fc5ff06f          	j	168c <main+0x1f8>
D:\Files\Pango\RISCV-SOC\RISC-V\rtl\SparrowRV\bsp\bsp_app\obj/../app/main.c:118
                        printf("freq:%d\r\n",dso_get_freq());
    16cc:	b39fe0ef          	jal	ra,204 <dso_get_freq>
    16d0:	00050593          	mv	a1,a0
    16d4:	20000537          	lui	a0,0x20000
    16d8:	42450513          	addi	a0,a0,1060 # 20000424 <_sram_base_addr+0x424>
    16dc:	c75ff0ef          	jal	ra,1350 <printf_>
D:\Files\Pango\RISCV-SOC\RISC-V\rtl\SparrowRV\bsp\bsp_app\obj/../app/main.c:119
                        break;
    16e0:	fadff06f          	j	168c <main+0x1f8>
D:\Files\Pango\RISCV-SOC\RISC-V\rtl\SparrowRV\bsp\bsp_app\obj/../app/main.c:121
                        printf("vpp:%d\r\n",dso_get_vpp());
    16e4:	b2dfe0ef          	jal	ra,210 <dso_get_vpp>
    16e8:	00050593          	mv	a1,a0
    16ec:	20000537          	lui	a0,0x20000
    16f0:	43050513          	addi	a0,a0,1072 # 20000430 <_sram_base_addr+0x430>
    16f4:	c5dff0ef          	jal	ra,1350 <printf_>
D:\Files\Pango\RISCV-SOC\RISC-V\rtl\SparrowRV\bsp\bsp_app\obj/../app/main.c:122
                        break;
    16f8:	f95ff06f          	j	168c <main+0x1f8>
D:\Files\Pango\RISCV-SOC\RISC-V\rtl\SparrowRV\bsp\bsp_app\obj/../app/main.c:124
                        printf("max:%d\r\n",dso_get_max());
    16fc:	b21fe0ef          	jal	ra,21c <dso_get_max>
    1700:	00050593          	mv	a1,a0
    1704:	20000537          	lui	a0,0x20000
    1708:	43c50513          	addi	a0,a0,1084 # 2000043c <_sram_base_addr+0x43c>
    170c:	c45ff0ef          	jal	ra,1350 <printf_>
D:\Files\Pango\RISCV-SOC\RISC-V\rtl\SparrowRV\bsp\bsp_app\obj/../app/main.c:125
                        break;
    1710:	f7dff06f          	j	168c <main+0x1f8>
D:\Files\Pango\RISCV-SOC\RISC-V\rtl\SparrowRV\bsp\bsp_app\obj/../app/main.c:127
                        printf("min:%d\r\n",dso_get_min());
    1714:	b15fe0ef          	jal	ra,228 <dso_get_min>
    1718:	00050593          	mv	a1,a0
    171c:	20000537          	lui	a0,0x20000
    1720:	44850513          	addi	a0,a0,1096 # 20000448 <_sram_base_addr+0x448>
    1724:	c2dff0ef          	jal	ra,1350 <printf_>
D:\Files\Pango\RISCV-SOC\RISC-V\rtl\SparrowRV\bsp\bsp_app\obj/../app/main.c:128
                        break;
    1728:	f65ff06f          	j	168c <main+0x1f8>
D:\Files\Pango\RISCV-SOC\RISC-V\rtl\SparrowRV\bsp\bsp_app\obj/../app/main.c:130
                        dso_set_fir_en(param_value);
    172c:	b09fe0ef          	jal	ra,234 <dso_set_fir_en>
D:\Files\Pango\RISCV-SOC\RISC-V\rtl\SparrowRV\bsp\bsp_app\obj/../app/main.c:131
                        break;
    1730:	f5dff06f          	j	168c <main+0x1f8>
D:\Files\Pango\RISCV-SOC\RISC-V\rtl\SparrowRV\bsp\bsp_app\obj/../app/main.c:133
                        dso_set_trig_line(param_value);
    1734:	b0dfe0ef          	jal	ra,240 <dso_set_trig_line>
D:\Files\Pango\RISCV-SOC\RISC-V\rtl\SparrowRV\bsp\bsp_app\obj/../app/main.c:134
                        break;
    1738:	f55ff06f          	j	168c <main+0x1f8>
D:\Files\Pango\RISCV-SOC\RISC-V\rtl\SparrowRV\bsp\bsp_app\obj/../app/main.c:142
                        switch(buf[4]) {
    173c:	01814783          	lbu	a5,24(sp)
    1740:	fcf78793          	addi	a5,a5,-49
    1744:	0ff7f693          	andi	a3,a5,255
    1748:	03500713          	li	a4,53
    174c:	dcd76ce3          	bltu	a4,a3,1524 <main+0x90>
    1750:	00269793          	slli	a5,a3,0x2
    1754:	20000737          	lui	a4,0x20000
    1758:	27870713          	addi	a4,a4,632 # 20000278 <_sram_base_addr+0x278>
    175c:	00e787b3          	add	a5,a5,a4
    1760:	0007a783          	lw	a5,0(a5)
    1764:	00078067          	jr	a5
D:\Files\Pango\RISCV-SOC\RISC-V\rtl\SparrowRV\bsp\bsp_app\obj/../app/main.c:144
                            la_set_data(param_value);
    1768:	b0dfe0ef          	jal	ra,274 <la_set_data>
D:\Files\Pango\RISCV-SOC\RISC-V\rtl\SparrowRV\bsp\bsp_app\obj/../app/main.c:145
                            break;
    176c:	db9ff06f          	j	1524 <main+0x90>
D:\Files\Pango\RISCV-SOC\RISC-V\rtl\SparrowRV\bsp\bsp_app\obj/../app/main.c:147
                            la_set_trgen(param_value);
    1770:	b11fe0ef          	jal	ra,280 <la_set_trgen>
D:\Files\Pango\RISCV-SOC\RISC-V\rtl\SparrowRV\bsp\bsp_app\obj/../app/main.c:148
                            break;
    1774:	db1ff06f          	j	1524 <main+0x90>
D:\Files\Pango\RISCV-SOC\RISC-V\rtl\SparrowRV\bsp\bsp_app\obj/../app/main.c:150
                            la_set_chnsel(param_value);
    1778:	b15fe0ef          	jal	ra,28c <la_set_chnsel>
D:\Files\Pango\RISCV-SOC\RISC-V\rtl\SparrowRV\bsp\bsp_app\obj/../app/main.c:151
                            break;
    177c:	da9ff06f          	j	1524 <main+0x90>
D:\Files\Pango\RISCV-SOC\RISC-V\rtl\SparrowRV\bsp\bsp_app\obj/../app/main.c:153
                            la_set_modesel(param_value);
    1780:	b19fe0ef          	jal	ra,298 <la_set_modesel>
D:\Files\Pango\RISCV-SOC\RISC-V\rtl\SparrowRV\bsp\bsp_app\obj/../app/main.c:154
                            break;
    1784:	da1ff06f          	j	1524 <main+0x90>
D:\Files\Pango\RISCV-SOC\RISC-V\rtl\SparrowRV\bsp\bsp_app\obj/../app/main.c:156
                            la_set_freqsel(param_value);
    1788:	b1dfe0ef          	jal	ra,2a4 <la_set_freqsel>
D:\Files\Pango\RISCV-SOC\RISC-V\rtl\SparrowRV\bsp\bsp_app\obj/../app/main.c:157
                            break;
    178c:	d99ff06f          	j	1524 <main+0x90>
D:\Files\Pango\RISCV-SOC\RISC-V\rtl\SparrowRV\bsp\bsp_app\obj/../app/main.c:159
                            la_set_prenum(param_value);
    1790:	b21fe0ef          	jal	ra,2b0 <la_set_prenum>
D:\Files\Pango\RISCV-SOC\RISC-V\rtl\SparrowRV\bsp\bsp_app\obj/../app/main.c:160
                            break;
    1794:	d91ff06f          	j	1524 <main+0x90>
D:\Files\Pango\RISCV-SOC\RISC-V\rtl\SparrowRV\bsp\bsp_app\obj/../app/main.c:162
                            printf("data:%d\r\n",la_get_data());
    1798:	b25fe0ef          	jal	ra,2bc <la_get_data>
    179c:	00050593          	mv	a1,a0
    17a0:	20000537          	lui	a0,0x20000
    17a4:	47c50513          	addi	a0,a0,1148 # 2000047c <_sram_base_addr+0x47c>
    17a8:	ba9ff0ef          	jal	ra,1350 <printf_>
D:\Files\Pango\RISCV-SOC\RISC-V\rtl\SparrowRV\bsp\bsp_app\obj/../app/main.c:163
                            break;
    17ac:	d79ff06f          	j	1524 <main+0x90>
D:\Files\Pango\RISCV-SOC\RISC-V\rtl\SparrowRV\bsp\bsp_app\obj/../app/main.c:165
                            printf("trgen:%d\r\n",la_get_trgen());
    17b0:	b19fe0ef          	jal	ra,2c8 <la_get_trgen>
    17b4:	00050593          	mv	a1,a0
    17b8:	20000537          	lui	a0,0x20000
    17bc:	48850513          	addi	a0,a0,1160 # 20000488 <_sram_base_addr+0x488>
    17c0:	b91ff0ef          	jal	ra,1350 <printf_>
D:\Files\Pango\RISCV-SOC\RISC-V\rtl\SparrowRV\bsp\bsp_app\obj/../app/main.c:166
                            break;
    17c4:	d61ff06f          	j	1524 <main+0x90>
D:\Files\Pango\RISCV-SOC\RISC-V\rtl\SparrowRV\bsp\bsp_app\obj/../app/main.c:168
                            printf("chnsel:%d\r\n",la_get_chnsel());
    17c8:	b0dfe0ef          	jal	ra,2d4 <la_get_chnsel>
    17cc:	00050593          	mv	a1,a0
    17d0:	20000537          	lui	a0,0x20000
    17d4:	49450513          	addi	a0,a0,1172 # 20000494 <_sram_base_addr+0x494>
    17d8:	b79ff0ef          	jal	ra,1350 <printf_>
D:\Files\Pango\RISCV-SOC\RISC-V\rtl\SparrowRV\bsp\bsp_app\obj/../app/main.c:169
                            break;
    17dc:	d49ff06f          	j	1524 <main+0x90>
D:\Files\Pango\RISCV-SOC\RISC-V\rtl\SparrowRV\bsp\bsp_app\obj/../app/main.c:171
                            printf("modesel:%d\r\n",la_get_modesel());
    17e0:	b01fe0ef          	jal	ra,2e0 <la_get_modesel>
    17e4:	00050593          	mv	a1,a0
    17e8:	20000537          	lui	a0,0x20000
    17ec:	4a050513          	addi	a0,a0,1184 # 200004a0 <_sram_base_addr+0x4a0>
    17f0:	b61ff0ef          	jal	ra,1350 <printf_>
D:\Files\Pango\RISCV-SOC\RISC-V\rtl\SparrowRV\bsp\bsp_app\obj/../app/main.c:172
                            break;
    17f4:	d31ff06f          	j	1524 <main+0x90>
D:\Files\Pango\RISCV-SOC\RISC-V\rtl\SparrowRV\bsp\bsp_app\obj/../app/main.c:174
                            printf("freqsel:%d\r\n",la_get_freqsel());
    17f8:	af5fe0ef          	jal	ra,2ec <la_get_freqsel>
    17fc:	00050593          	mv	a1,a0
    1800:	20000537          	lui	a0,0x20000
    1804:	4b050513          	addi	a0,a0,1200 # 200004b0 <_sram_base_addr+0x4b0>
    1808:	b49ff0ef          	jal	ra,1350 <printf_>
D:\Files\Pango\RISCV-SOC\RISC-V\rtl\SparrowRV\bsp\bsp_app\obj/../app/main.c:175
                            break;
    180c:	d19ff06f          	j	1524 <main+0x90>
D:\Files\Pango\RISCV-SOC\RISC-V\rtl\SparrowRV\bsp\bsp_app\obj/../app/main.c:177
                            printf("prenum:%d\r\n",la_get_prenum());
    1810:	ae9fe0ef          	jal	ra,2f8 <la_get_prenum>
    1814:	00050593          	mv	a1,a0
    1818:	20000537          	lui	a0,0x20000
    181c:	4c050513          	addi	a0,a0,1216 # 200004c0 <_sram_base_addr+0x4c0>
    1820:	b31ff0ef          	jal	ra,1350 <printf_>
D:\Files\Pango\RISCV-SOC\RISC-V\rtl\SparrowRV\bsp\bsp_app\obj/../app/main.c:178
                            break;
    1824:	d01ff06f          	j	1524 <main+0x90>
D:\Files\Pango\RISCV-SOC\RISC-V\rtl\SparrowRV\bsp\bsp_app\obj/../app/main.c:180
                            la_set_uart_en(param_value);
    1828:	addfe0ef          	jal	ra,304 <la_set_uart_en>
D:\Files\Pango\RISCV-SOC\RISC-V\rtl\SparrowRV\bsp\bsp_app\obj/../app/main.c:181
                            break;
    182c:	cf9ff06f          	j	1524 <main+0x90>
D:\Files\Pango\RISCV-SOC\RISC-V\rtl\SparrowRV\bsp\bsp_app\obj/../app/main.c:183
                            la_set_spi_en(param_value);
    1830:	ae1fe0ef          	jal	ra,310 <la_set_spi_en>
D:\Files\Pango\RISCV-SOC\RISC-V\rtl\SparrowRV\bsp\bsp_app\obj/../app/main.c:184
                            break;
    1834:	cf1ff06f          	j	1524 <main+0x90>
D:\Files\Pango\RISCV-SOC\RISC-V\rtl\SparrowRV\bsp\bsp_app\obj/../app/main.c:186
                            la_set_interval(param_value);
    1838:	ae5fe0ef          	jal	ra,31c <la_set_interval>
D:\Files\Pango\RISCV-SOC\RISC-V\rtl\SparrowRV\bsp\bsp_app\obj/../app/main.c:187
                            break;
    183c:	ce9ff06f          	j	1524 <main+0x90>

00001840 <SysTick_Handler>:
SysTick_Handler():
D:\Files\Pango\RISCV-SOC\RISC-V\rtl\SparrowRV\bsp\bsp_app\obj/../app/trap_handler.c:17

//定时器中断服务程序
void SysTick_Handler()
{
    //printf("interrupt tcmp in original function\n");
}
    1840:	30200073          	mret

00001844 <SW_Handler>:
SW_Handler():
D:\Files\Pango\RISCV-SOC\RISC-V\rtl\SparrowRV\bsp\bsp_app\obj/../app/trap_handler.c:24
//软件中断服务程序

void SW_Handler()
{
    //printf("interrupt soft in original function\n");
}
    1844:	30200073          	mret

00001848 <__udivdi3>:
__udivdi3():
    1848:	ff810113          	addi	sp,sp,-8
    184c:	00812223          	sw	s0,4(sp)
    1850:	00912023          	sw	s1,0(sp)
    1854:	1c069a63          	bnez	a3,1a28 <__udivdi3+0x1e0>
    1858:	00068713          	mv	a4,a3
    185c:	00060313          	mv	t1,a2
    1860:	00050293          	mv	t0,a0
    1864:	0ec5f463          	bgeu	a1,a2,194c <__udivdi3+0x104>
    1868:	000106b7          	lui	a3,0x10
    186c:	00058793          	mv	a5,a1
    1870:	24d66663          	bltu	a2,a3,1abc <__udivdi3+0x274>
    1874:	01000737          	lui	a4,0x1000
    1878:	42e66c63          	bltu	a2,a4,1cb0 <__udivdi3+0x468>
    187c:	01865393          	srli	t2,a2,0x18
    1880:	01800713          	li	a4,24
    1884:	1ffff697          	auipc	a3,0x1ffff
    1888:	c8868693          	addi	a3,a3,-888 # 2000050c <__clz_tab>
    188c:	007686b3          	add	a3,a3,t2
    1890:	0006c683          	lbu	a3,0(a3)
    1894:	00e68733          	add	a4,a3,a4
    1898:	02000693          	li	a3,32
    189c:	40e686b3          	sub	a3,a3,a4
    18a0:	00068c63          	beqz	a3,18b8 <__udivdi3+0x70>
    18a4:	00d595b3          	sll	a1,a1,a3
    18a8:	00e55733          	srl	a4,a0,a4
    18ac:	00d61333          	sll	t1,a2,a3
    18b0:	00b767b3          	or	a5,a4,a1
    18b4:	00d512b3          	sll	t0,a0,a3
    18b8:	01035513          	srli	a0,t1,0x10
    18bc:	02a7d6b3          	divu	a3,a5,a0
    18c0:	01031593          	slli	a1,t1,0x10
    18c4:	0105d593          	srli	a1,a1,0x10
    18c8:	0102d613          	srli	a2,t0,0x10
    18cc:	02a7f733          	remu	a4,a5,a0
    18d0:	02d583b3          	mul	t2,a1,a3
    18d4:	01071713          	slli	a4,a4,0x10
    18d8:	00c767b3          	or	a5,a4,a2
    18dc:	0077fc63          	bgeu	a5,t2,18f4 <__udivdi3+0xac>
    18e0:	006787b3          	add	a5,a5,t1
    18e4:	fff68713          	addi	a4,a3,-1
    18e8:	0067e463          	bltu	a5,t1,18f0 <__udivdi3+0xa8>
    18ec:	4077ea63          	bltu	a5,t2,1d00 <__udivdi3+0x4b8>
    18f0:	00070693          	mv	a3,a4
    18f4:	407787b3          	sub	a5,a5,t2
    18f8:	02a7d633          	divu	a2,a5,a0
    18fc:	01029293          	slli	t0,t0,0x10
    1900:	0102d293          	srli	t0,t0,0x10
    1904:	02a7f7b3          	remu	a5,a5,a0
    1908:	02c58733          	mul	a4,a1,a2
    190c:	01079793          	slli	a5,a5,0x10
    1910:	0057e2b3          	or	t0,a5,t0
    1914:	00e2fe63          	bgeu	t0,a4,1930 <__udivdi3+0xe8>
    1918:	005302b3          	add	t0,t1,t0
    191c:	fff60793          	addi	a5,a2,-1
    1920:	0062e663          	bltu	t0,t1,192c <__udivdi3+0xe4>
    1924:	ffe60613          	addi	a2,a2,-2
    1928:	00e2e463          	bltu	t0,a4,1930 <__udivdi3+0xe8>
    192c:	00078613          	mv	a2,a5
    1930:	01069513          	slli	a0,a3,0x10
    1934:	00c56533          	or	a0,a0,a2
    1938:	00000593          	li	a1,0
    193c:	00412403          	lw	s0,4(sp)
    1940:	00012483          	lw	s1,0(sp)
    1944:	00810113          	addi	sp,sp,8
    1948:	00008067          	ret
    194c:	00061663          	bnez	a2,1958 <__udivdi3+0x110>
    1950:	00100793          	li	a5,1
    1954:	02c7d333          	divu	t1,a5,a2
    1958:	000107b7          	lui	a5,0x10
    195c:	14f36463          	bltu	t1,a5,1aa4 <__udivdi3+0x25c>
    1960:	010007b7          	lui	a5,0x1000
    1964:	34f36c63          	bltu	t1,a5,1cbc <__udivdi3+0x474>
    1968:	01835693          	srli	a3,t1,0x18
    196c:	01800713          	li	a4,24
    1970:	1ffff797          	auipc	a5,0x1ffff
    1974:	b9c78793          	addi	a5,a5,-1124 # 2000050c <__clz_tab>
    1978:	00d787b3          	add	a5,a5,a3
    197c:	0007c783          	lbu	a5,0(a5)
    1980:	02000693          	li	a3,32
    1984:	00e78733          	add	a4,a5,a4
    1988:	40e686b3          	sub	a3,a3,a4
    198c:	14069463          	bnez	a3,1ad4 <__udivdi3+0x28c>
    1990:	01031613          	slli	a2,t1,0x10
    1994:	40658733          	sub	a4,a1,t1
    1998:	01035393          	srli	t2,t1,0x10
    199c:	01065613          	srli	a2,a2,0x10
    19a0:	00100593          	li	a1,1
    19a4:	0102d793          	srli	a5,t0,0x10
    19a8:	027756b3          	divu	a3,a4,t2
    19ac:	02777733          	remu	a4,a4,t2
    19b0:	02c68533          	mul	a0,a3,a2
    19b4:	01071713          	slli	a4,a4,0x10
    19b8:	00f767b3          	or	a5,a4,a5
    19bc:	00a7fc63          	bgeu	a5,a0,19d4 <__udivdi3+0x18c>
    19c0:	006787b3          	add	a5,a5,t1
    19c4:	fff68713          	addi	a4,a3,-1
    19c8:	0067e463          	bltu	a5,t1,19d0 <__udivdi3+0x188>
    19cc:	34a7e063          	bltu	a5,a0,1d0c <__udivdi3+0x4c4>
    19d0:	00070693          	mv	a3,a4
    19d4:	40a787b3          	sub	a5,a5,a0
    19d8:	0277d533          	divu	a0,a5,t2
    19dc:	01029293          	slli	t0,t0,0x10
    19e0:	0102d293          	srli	t0,t0,0x10
    19e4:	0277f7b3          	remu	a5,a5,t2
    19e8:	02c50633          	mul	a2,a0,a2
    19ec:	01079793          	slli	a5,a5,0x10
    19f0:	0057e7b3          	or	a5,a5,t0
    19f4:	00c7fe63          	bgeu	a5,a2,1a10 <__udivdi3+0x1c8>
    19f8:	00f307b3          	add	a5,t1,a5
    19fc:	fff50713          	addi	a4,a0,-1
    1a00:	0067e663          	bltu	a5,t1,1a0c <__udivdi3+0x1c4>
    1a04:	ffe50513          	addi	a0,a0,-2
    1a08:	00c7e463          	bltu	a5,a2,1a10 <__udivdi3+0x1c8>
    1a0c:	00070513          	mv	a0,a4
    1a10:	01069693          	slli	a3,a3,0x10
    1a14:	00a6e533          	or	a0,a3,a0
    1a18:	00412403          	lw	s0,4(sp)
    1a1c:	00012483          	lw	s1,0(sp)
    1a20:	00810113          	addi	sp,sp,8
    1a24:	00008067          	ret
    1a28:	04d5e863          	bltu	a1,a3,1a78 <__udivdi3+0x230>
    1a2c:	000107b7          	lui	a5,0x10
    1a30:	06f6e063          	bltu	a3,a5,1a90 <__udivdi3+0x248>
    1a34:	010007b7          	lui	a5,0x1000
    1a38:	26f6e663          	bltu	a3,a5,1ca4 <__udivdi3+0x45c>
    1a3c:	0186d313          	srli	t1,a3,0x18
    1a40:	01800713          	li	a4,24
    1a44:	1ffff797          	auipc	a5,0x1ffff
    1a48:	ac878793          	addi	a5,a5,-1336 # 2000050c <__clz_tab>
    1a4c:	006787b3          	add	a5,a5,t1
    1a50:	0007c283          	lbu	t0,0(a5)
    1a54:	02000313          	li	t1,32
    1a58:	00e282b3          	add	t0,t0,a4
    1a5c:	40530333          	sub	t1,t1,t0
    1a60:	10031c63          	bnez	t1,1b78 <__udivdi3+0x330>
    1a64:	26b6e263          	bltu	a3,a1,1cc8 <__udivdi3+0x480>
    1a68:	00c53533          	sltu	a0,a0,a2
    1a6c:	00154513          	xori	a0,a0,1
    1a70:	00000593          	li	a1,0
    1a74:	00c0006f          	j	1a80 <__udivdi3+0x238>
    1a78:	00000593          	li	a1,0
    1a7c:	00000513          	li	a0,0
    1a80:	00412403          	lw	s0,4(sp)
    1a84:	00012483          	lw	s1,0(sp)
    1a88:	00810113          	addi	sp,sp,8
    1a8c:	00008067          	ret
    1a90:	0ff00793          	li	a5,255
    1a94:	24d7f063          	bgeu	a5,a3,1cd4 <__udivdi3+0x48c>
    1a98:	0086d313          	srli	t1,a3,0x8
    1a9c:	00800713          	li	a4,8
    1aa0:	fa5ff06f          	j	1a44 <__udivdi3+0x1fc>
    1aa4:	0ff00793          	li	a5,255
    1aa8:	00030693          	mv	a3,t1
    1aac:	ec67f2e3          	bgeu	a5,t1,1970 <__udivdi3+0x128>
    1ab0:	00835693          	srli	a3,t1,0x8
    1ab4:	00800713          	li	a4,8
    1ab8:	eb9ff06f          	j	1970 <__udivdi3+0x128>
    1abc:	0ff00693          	li	a3,255
    1ac0:	00060393          	mv	t2,a2
    1ac4:	dcc6f0e3          	bgeu	a3,a2,1884 <__udivdi3+0x3c>
    1ac8:	00865393          	srli	t2,a2,0x8
    1acc:	00800713          	li	a4,8
    1ad0:	db5ff06f          	j	1884 <__udivdi3+0x3c>
    1ad4:	00d31333          	sll	t1,t1,a3
    1ad8:	00e5d7b3          	srl	a5,a1,a4
    1adc:	01035393          	srli	t2,t1,0x10
    1ae0:	0277d433          	divu	s0,a5,t2
    1ae4:	00d595b3          	sll	a1,a1,a3
    1ae8:	00d512b3          	sll	t0,a0,a3
    1aec:	01031613          	slli	a2,t1,0x10
    1af0:	01065613          	srli	a2,a2,0x10
    1af4:	00e55733          	srl	a4,a0,a4
    1af8:	00b76733          	or	a4,a4,a1
    1afc:	01075593          	srli	a1,a4,0x10
    1b00:	0277f6b3          	remu	a3,a5,t2
    1b04:	028607b3          	mul	a5,a2,s0
    1b08:	01069693          	slli	a3,a3,0x10
    1b0c:	00b6e6b3          	or	a3,a3,a1
    1b10:	00f6fe63          	bgeu	a3,a5,1b2c <__udivdi3+0x2e4>
    1b14:	006686b3          	add	a3,a3,t1
    1b18:	fff40593          	addi	a1,s0,-1
    1b1c:	1c66ee63          	bltu	a3,t1,1cf8 <__udivdi3+0x4b0>
    1b20:	1cf6fc63          	bgeu	a3,a5,1cf8 <__udivdi3+0x4b0>
    1b24:	ffe40413          	addi	s0,s0,-2
    1b28:	006686b3          	add	a3,a3,t1
    1b2c:	40f686b3          	sub	a3,a3,a5
    1b30:	0276d7b3          	divu	a5,a3,t2
    1b34:	01071593          	slli	a1,a4,0x10
    1b38:	0105d593          	srli	a1,a1,0x10
    1b3c:	0276f6b3          	remu	a3,a3,t2
    1b40:	02f60533          	mul	a0,a2,a5
    1b44:	01069713          	slli	a4,a3,0x10
    1b48:	00b76733          	or	a4,a4,a1
    1b4c:	00a77e63          	bgeu	a4,a0,1b68 <__udivdi3+0x320>
    1b50:	00670733          	add	a4,a4,t1
    1b54:	fff78693          	addi	a3,a5,-1
    1b58:	18676863          	bltu	a4,t1,1ce8 <__udivdi3+0x4a0>
    1b5c:	18a77663          	bgeu	a4,a0,1ce8 <__udivdi3+0x4a0>
    1b60:	ffe78793          	addi	a5,a5,-2
    1b64:	00670733          	add	a4,a4,t1
    1b68:	01041593          	slli	a1,s0,0x10
    1b6c:	40a70733          	sub	a4,a4,a0
    1b70:	00f5e5b3          	or	a1,a1,a5
    1b74:	e31ff06f          	j	19a4 <__udivdi3+0x15c>
    1b78:	005653b3          	srl	t2,a2,t0
    1b7c:	006696b3          	sll	a3,a3,t1
    1b80:	00d3e3b3          	or	t2,t2,a3
    1b84:	0055d7b3          	srl	a5,a1,t0
    1b88:	0103d493          	srli	s1,t2,0x10
    1b8c:	0297d6b3          	divu	a3,a5,s1
    1b90:	01039413          	slli	s0,t2,0x10
    1b94:	00659733          	sll	a4,a1,t1
    1b98:	005552b3          	srl	t0,a0,t0
    1b9c:	01045413          	srli	s0,s0,0x10
    1ba0:	00e2e733          	or	a4,t0,a4
    1ba4:	01075593          	srli	a1,a4,0x10
    1ba8:	00661633          	sll	a2,a2,t1
    1bac:	0297f7b3          	remu	a5,a5,s1
    1bb0:	02d402b3          	mul	t0,s0,a3
    1bb4:	01079793          	slli	a5,a5,0x10
    1bb8:	00b7e7b3          	or	a5,a5,a1
    1bbc:	0057fe63          	bgeu	a5,t0,1bd8 <__udivdi3+0x390>
    1bc0:	007787b3          	add	a5,a5,t2
    1bc4:	fff68593          	addi	a1,a3,-1
    1bc8:	1277e463          	bltu	a5,t2,1cf0 <__udivdi3+0x4a8>
    1bcc:	1257f263          	bgeu	a5,t0,1cf0 <__udivdi3+0x4a8>
    1bd0:	ffe68693          	addi	a3,a3,-2
    1bd4:	007787b3          	add	a5,a5,t2
    1bd8:	405787b3          	sub	a5,a5,t0
    1bdc:	0297d2b3          	divu	t0,a5,s1
    1be0:	01071713          	slli	a4,a4,0x10
    1be4:	01075713          	srli	a4,a4,0x10
    1be8:	0297f7b3          	remu	a5,a5,s1
    1bec:	02540433          	mul	s0,s0,t0
    1bf0:	01079793          	slli	a5,a5,0x10
    1bf4:	00e7e733          	or	a4,a5,a4
    1bf8:	00877e63          	bgeu	a4,s0,1c14 <__udivdi3+0x3cc>
    1bfc:	00770733          	add	a4,a4,t2
    1c00:	fff28793          	addi	a5,t0,-1
    1c04:	0c776e63          	bltu	a4,t2,1ce0 <__udivdi3+0x498>
    1c08:	0c877c63          	bgeu	a4,s0,1ce0 <__udivdi3+0x498>
    1c0c:	ffe28293          	addi	t0,t0,-2
    1c10:	00770733          	add	a4,a4,t2
    1c14:	01069693          	slli	a3,a3,0x10
    1c18:	000103b7          	lui	t2,0x10
    1c1c:	0056e6b3          	or	a3,a3,t0
    1c20:	fff38593          	addi	a1,t2,-1 # ffff <_app_prog_size+0x7fff>
    1c24:	00b6f7b3          	and	a5,a3,a1
    1c28:	0106d293          	srli	t0,a3,0x10
    1c2c:	00b675b3          	and	a1,a2,a1
    1c30:	01065613          	srli	a2,a2,0x10
    1c34:	02b784b3          	mul	s1,a5,a1
    1c38:	40870433          	sub	s0,a4,s0
    1c3c:	02c787b3          	mul	a5,a5,a2
    1c40:	0104d713          	srli	a4,s1,0x10
    1c44:	02b285b3          	mul	a1,t0,a1
    1c48:	00b787b3          	add	a5,a5,a1
    1c4c:	00f707b3          	add	a5,a4,a5
    1c50:	02c28633          	mul	a2,t0,a2
    1c54:	00b7f463          	bgeu	a5,a1,1c5c <__udivdi3+0x414>
    1c58:	00760633          	add	a2,a2,t2
    1c5c:	0107d293          	srli	t0,a5,0x10
    1c60:	00c28633          	add	a2,t0,a2
    1c64:	02c46a63          	bltu	s0,a2,1c98 <__udivdi3+0x450>
    1c68:	00c40863          	beq	s0,a2,1c78 <__udivdi3+0x430>
    1c6c:	00068513          	mv	a0,a3
    1c70:	00000593          	li	a1,0
    1c74:	e0dff06f          	j	1a80 <__udivdi3+0x238>
    1c78:	00010737          	lui	a4,0x10
    1c7c:	fff70713          	addi	a4,a4,-1 # ffff <_app_prog_size+0x7fff>
    1c80:	00e7f7b3          	and	a5,a5,a4
    1c84:	01079793          	slli	a5,a5,0x10
    1c88:	00e4f4b3          	and	s1,s1,a4
    1c8c:	00651533          	sll	a0,a0,t1
    1c90:	009787b3          	add	a5,a5,s1
    1c94:	fcf57ce3          	bgeu	a0,a5,1c6c <__udivdi3+0x424>
    1c98:	fff68513          	addi	a0,a3,-1
    1c9c:	00000593          	li	a1,0
    1ca0:	de1ff06f          	j	1a80 <__udivdi3+0x238>
    1ca4:	0106d313          	srli	t1,a3,0x10
    1ca8:	01000713          	li	a4,16
    1cac:	d99ff06f          	j	1a44 <__udivdi3+0x1fc>
    1cb0:	01065393          	srli	t2,a2,0x10
    1cb4:	01000713          	li	a4,16
    1cb8:	bcdff06f          	j	1884 <__udivdi3+0x3c>
    1cbc:	01035693          	srli	a3,t1,0x10
    1cc0:	01000713          	li	a4,16
    1cc4:	cadff06f          	j	1970 <__udivdi3+0x128>
    1cc8:	00000593          	li	a1,0
    1ccc:	00100513          	li	a0,1
    1cd0:	db1ff06f          	j	1a80 <__udivdi3+0x238>
    1cd4:	00068313          	mv	t1,a3
    1cd8:	00000713          	li	a4,0
    1cdc:	d69ff06f          	j	1a44 <__udivdi3+0x1fc>
    1ce0:	00078293          	mv	t0,a5
    1ce4:	f31ff06f          	j	1c14 <__udivdi3+0x3cc>
    1ce8:	00068793          	mv	a5,a3
    1cec:	e7dff06f          	j	1b68 <__udivdi3+0x320>
    1cf0:	00058693          	mv	a3,a1
    1cf4:	ee5ff06f          	j	1bd8 <__udivdi3+0x390>
    1cf8:	00058413          	mv	s0,a1
    1cfc:	e31ff06f          	j	1b2c <__udivdi3+0x2e4>
    1d00:	ffe68693          	addi	a3,a3,-2
    1d04:	006787b3          	add	a5,a5,t1
    1d08:	bedff06f          	j	18f4 <__udivdi3+0xac>
    1d0c:	ffe68693          	addi	a3,a3,-2
    1d10:	006787b3          	add	a5,a5,t1
    1d14:	cc1ff06f          	j	19d4 <__udivdi3+0x18c>

00001d18 <__umoddi3>:
__umoddi3():
    1d18:	ff010113          	addi	sp,sp,-16
    1d1c:	00812623          	sw	s0,12(sp)
    1d20:	00912423          	sw	s1,8(sp)
    1d24:	1a069663          	bnez	a3,1ed0 <__umoddi3+0x1b8>
    1d28:	00068793          	mv	a5,a3
    1d2c:	00060313          	mv	t1,a2
    1d30:	00050493          	mv	s1,a0
    1d34:	0cc5f863          	bgeu	a1,a2,1e04 <__umoddi3+0xec>
    1d38:	00010737          	lui	a4,0x10
    1d3c:	00058413          	mv	s0,a1
    1d40:	22e67863          	bgeu	a2,a4,1f70 <__umoddi3+0x258>
    1d44:	0ff00713          	li	a4,255
    1d48:	00060693          	mv	a3,a2
    1d4c:	00c77663          	bgeu	a4,a2,1d58 <__umoddi3+0x40>
    1d50:	00865693          	srli	a3,a2,0x8
    1d54:	00800793          	li	a5,8
    1d58:	1fffe717          	auipc	a4,0x1fffe
    1d5c:	7b470713          	addi	a4,a4,1972 # 2000050c <__clz_tab>
    1d60:	00d70733          	add	a4,a4,a3
    1d64:	00074703          	lbu	a4,0(a4)
    1d68:	02000393          	li	t2,32
    1d6c:	00f707b3          	add	a5,a4,a5
    1d70:	40f383b3          	sub	t2,t2,a5
    1d74:	00038c63          	beqz	t2,1d8c <__umoddi3+0x74>
    1d78:	007595b3          	sll	a1,a1,t2
    1d7c:	00f557b3          	srl	a5,a0,a5
    1d80:	00761333          	sll	t1,a2,t2
    1d84:	00b7e433          	or	s0,a5,a1
    1d88:	007514b3          	sll	s1,a0,t2
    1d8c:	01035613          	srli	a2,t1,0x10
    1d90:	02c45733          	divu	a4,s0,a2
    1d94:	01031513          	slli	a0,t1,0x10
    1d98:	01055513          	srli	a0,a0,0x10
    1d9c:	0104d693          	srli	a3,s1,0x10
    1da0:	02c47433          	remu	s0,s0,a2
    1da4:	02e507b3          	mul	a5,a0,a4
    1da8:	01041413          	slli	s0,s0,0x10
    1dac:	00d46733          	or	a4,s0,a3
    1db0:	00f77a63          	bgeu	a4,a5,1dc4 <__umoddi3+0xac>
    1db4:	00670733          	add	a4,a4,t1
    1db8:	00676663          	bltu	a4,t1,1dc4 <__umoddi3+0xac>
    1dbc:	00f77463          	bgeu	a4,a5,1dc4 <__umoddi3+0xac>
    1dc0:	00670733          	add	a4,a4,t1
    1dc4:	40f70733          	sub	a4,a4,a5
    1dc8:	02c756b3          	divu	a3,a4,a2
    1dcc:	01049793          	slli	a5,s1,0x10
    1dd0:	0107d793          	srli	a5,a5,0x10
    1dd4:	02c77733          	remu	a4,a4,a2
    1dd8:	02d50533          	mul	a0,a0,a3
    1ddc:	01071713          	slli	a4,a4,0x10
    1de0:	00f767b3          	or	a5,a4,a5
    1de4:	0ca7e063          	bltu	a5,a0,1ea4 <__umoddi3+0x18c>
    1de8:	40a78533          	sub	a0,a5,a0
    1dec:	00755533          	srl	a0,a0,t2
    1df0:	00000593          	li	a1,0
    1df4:	00c12403          	lw	s0,12(sp)
    1df8:	00812483          	lw	s1,8(sp)
    1dfc:	01010113          	addi	sp,sp,16
    1e00:	00008067          	ret
    1e04:	00061663          	bnez	a2,1e10 <__umoddi3+0xf8>
    1e08:	00100713          	li	a4,1
    1e0c:	02c75333          	divu	t1,a4,a2
    1e10:	00010737          	lui	a4,0x10
    1e14:	14e36263          	bltu	t1,a4,1f58 <__umoddi3+0x240>
    1e18:	010007b7          	lui	a5,0x1000
    1e1c:	36f36a63          	bltu	t1,a5,2190 <__umoddi3+0x478>
    1e20:	01835693          	srli	a3,t1,0x18
    1e24:	01800793          	li	a5,24
    1e28:	1fffe717          	auipc	a4,0x1fffe
    1e2c:	6e470713          	addi	a4,a4,1764 # 2000050c <__clz_tab>
    1e30:	00d70733          	add	a4,a4,a3
    1e34:	00074703          	lbu	a4,0(a4)
    1e38:	02000393          	li	t2,32
    1e3c:	00f707b3          	add	a5,a4,a5
    1e40:	40f383b3          	sub	t2,t2,a5
    1e44:	28039863          	bnez	t2,20d4 <__umoddi3+0x3bc>
    1e48:	01031293          	slli	t0,t1,0x10
    1e4c:	406585b3          	sub	a1,a1,t1
    1e50:	01035613          	srli	a2,t1,0x10
    1e54:	0102d293          	srli	t0,t0,0x10
    1e58:	0104d713          	srli	a4,s1,0x10
    1e5c:	02c5d7b3          	divu	a5,a1,a2
    1e60:	02c5f5b3          	remu	a1,a1,a2
    1e64:	025787b3          	mul	a5,a5,t0
    1e68:	01059593          	slli	a1,a1,0x10
    1e6c:	00e5e733          	or	a4,a1,a4
    1e70:	00f77863          	bgeu	a4,a5,1e80 <__umoddi3+0x168>
    1e74:	00670733          	add	a4,a4,t1
    1e78:	00676463          	bltu	a4,t1,1e80 <__umoddi3+0x168>
    1e7c:	34f76463          	bltu	a4,a5,21c4 <__umoddi3+0x4ac>
    1e80:	40f70733          	sub	a4,a4,a5
    1e84:	02c75533          	divu	a0,a4,a2
    1e88:	01049493          	slli	s1,s1,0x10
    1e8c:	0104d493          	srli	s1,s1,0x10
    1e90:	02c77733          	remu	a4,a4,a2
    1e94:	02550533          	mul	a0,a0,t0
    1e98:	01071713          	slli	a4,a4,0x10
    1e9c:	009767b3          	or	a5,a4,s1
    1ea0:	00a7fa63          	bgeu	a5,a0,1eb4 <__umoddi3+0x19c>
    1ea4:	006787b3          	add	a5,a5,t1
    1ea8:	0067e663          	bltu	a5,t1,1eb4 <__umoddi3+0x19c>
    1eac:	00a7f463          	bgeu	a5,a0,1eb4 <__umoddi3+0x19c>
    1eb0:	006787b3          	add	a5,a5,t1
    1eb4:	40a78533          	sub	a0,a5,a0
    1eb8:	00755533          	srl	a0,a0,t2
    1ebc:	00000593          	li	a1,0
    1ec0:	00c12403          	lw	s0,12(sp)
    1ec4:	00812483          	lw	s1,8(sp)
    1ec8:	01010113          	addi	sp,sp,16
    1ecc:	00008067          	ret
    1ed0:	00050313          	mv	t1,a0
    1ed4:	f2d5e0e3          	bltu	a1,a3,1df4 <__umoddi3+0xdc>
    1ed8:	000107b7          	lui	a5,0x10
    1edc:	00058713          	mv	a4,a1
    1ee0:	06f6e263          	bltu	a3,a5,1f44 <__umoddi3+0x22c>
    1ee4:	010007b7          	lui	a5,0x1000
    1ee8:	28f6ee63          	bltu	a3,a5,2184 <__umoddi3+0x46c>
    1eec:	0186d393          	srli	t2,a3,0x18
    1ef0:	01800293          	li	t0,24
    1ef4:	1fffe797          	auipc	a5,0x1fffe
    1ef8:	61878793          	addi	a5,a5,1560 # 2000050c <__clz_tab>
    1efc:	007787b3          	add	a5,a5,t2
    1f00:	0007c383          	lbu	t2,0(a5)
    1f04:	005383b3          	add	t2,t2,t0
    1f08:	02000293          	li	t0,32
    1f0c:	407282b3          	sub	t0,t0,t2
    1f10:	06029a63          	bnez	t0,1f84 <__umoddi3+0x26c>
    1f14:	00b6e463          	bltu	a3,a1,1f1c <__umoddi3+0x204>
    1f18:	00c56a63          	bltu	a0,a2,1f2c <__umoddi3+0x214>
    1f1c:	40c50333          	sub	t1,a0,a2
    1f20:	40d585b3          	sub	a1,a1,a3
    1f24:	00653533          	sltu	a0,a0,t1
    1f28:	40a58733          	sub	a4,a1,a0
    1f2c:	00030513          	mv	a0,t1
    1f30:	00070593          	mv	a1,a4
    1f34:	00c12403          	lw	s0,12(sp)
    1f38:	00812483          	lw	s1,8(sp)
    1f3c:	01010113          	addi	sp,sp,16
    1f40:	00008067          	ret
    1f44:	0ff00793          	li	a5,255
    1f48:	26d7f063          	bgeu	a5,a3,21a8 <__umoddi3+0x490>
    1f4c:	0086d393          	srli	t2,a3,0x8
    1f50:	00800293          	li	t0,8
    1f54:	fa1ff06f          	j	1ef4 <__umoddi3+0x1dc>
    1f58:	0ff00713          	li	a4,255
    1f5c:	00030693          	mv	a3,t1
    1f60:	ec6774e3          	bgeu	a4,t1,1e28 <__umoddi3+0x110>
    1f64:	00835693          	srli	a3,t1,0x8
    1f68:	00800793          	li	a5,8
    1f6c:	ebdff06f          	j	1e28 <__umoddi3+0x110>
    1f70:	010007b7          	lui	a5,0x1000
    1f74:	22f66463          	bltu	a2,a5,219c <__umoddi3+0x484>
    1f78:	01865693          	srli	a3,a2,0x18
    1f7c:	01800793          	li	a5,24
    1f80:	dd9ff06f          	j	1d58 <__umoddi3+0x40>
    1f84:	005696b3          	sll	a3,a3,t0
    1f88:	00765433          	srl	s0,a2,t2
    1f8c:	00d46433          	or	s0,s0,a3
    1f90:	0075d333          	srl	t1,a1,t2
    1f94:	01045693          	srli	a3,s0,0x10
    1f98:	02d354b3          	divu	s1,t1,a3
    1f9c:	00561633          	sll	a2,a2,t0
    1fa0:	01041713          	slli	a4,s0,0x10
    1fa4:	01075713          	srli	a4,a4,0x10
    1fa8:	00c12023          	sw	a2,0(sp)
    1fac:	00551633          	sll	a2,a0,t0
    1fb0:	00c12223          	sw	a2,4(sp)
    1fb4:	007557b3          	srl	a5,a0,t2
    1fb8:	005595b3          	sll	a1,a1,t0
    1fbc:	00b7e5b3          	or	a1,a5,a1
    1fc0:	0105d793          	srli	a5,a1,0x10
    1fc4:	02d37333          	remu	t1,t1,a3
    1fc8:	02970633          	mul	a2,a4,s1
    1fcc:	01031313          	slli	t1,t1,0x10
    1fd0:	00f367b3          	or	a5,t1,a5
    1fd4:	00c7fe63          	bgeu	a5,a2,1ff0 <__umoddi3+0x2d8>
    1fd8:	008787b3          	add	a5,a5,s0
    1fdc:	fff48513          	addi	a0,s1,-1
    1fe0:	1c87ee63          	bltu	a5,s0,21bc <__umoddi3+0x4a4>
    1fe4:	1cc7fc63          	bgeu	a5,a2,21bc <__umoddi3+0x4a4>
    1fe8:	ffe48493          	addi	s1,s1,-2
    1fec:	008787b3          	add	a5,a5,s0
    1ff0:	40c787b3          	sub	a5,a5,a2
    1ff4:	02d7d633          	divu	a2,a5,a3
    1ff8:	01059593          	slli	a1,a1,0x10
    1ffc:	0105d593          	srli	a1,a1,0x10
    2000:	02d7f7b3          	remu	a5,a5,a3
    2004:	02c70733          	mul	a4,a4,a2
    2008:	01079793          	slli	a5,a5,0x10
    200c:	00b7e7b3          	or	a5,a5,a1
    2010:	00e7fe63          	bgeu	a5,a4,202c <__umoddi3+0x314>
    2014:	008787b3          	add	a5,a5,s0
    2018:	fff60693          	addi	a3,a2,-1
    201c:	1887ec63          	bltu	a5,s0,21b4 <__umoddi3+0x49c>
    2020:	18e7fa63          	bgeu	a5,a4,21b4 <__umoddi3+0x49c>
    2024:	ffe60613          	addi	a2,a2,-2
    2028:	008787b3          	add	a5,a5,s0
    202c:	01049693          	slli	a3,s1,0x10
    2030:	00c6e6b3          	or	a3,a3,a2
    2034:	00012603          	lw	a2,0(sp)
    2038:	00010337          	lui	t1,0x10
    203c:	fff30493          	addi	s1,t1,-1 # ffff <_app_prog_size+0x7fff>
    2040:	0096f5b3          	and	a1,a3,s1
    2044:	009674b3          	and	s1,a2,s1
    2048:	0106d693          	srli	a3,a3,0x10
    204c:	01065613          	srli	a2,a2,0x10
    2050:	02958533          	mul	a0,a1,s1
    2054:	40e78733          	sub	a4,a5,a4
    2058:	02c585b3          	mul	a1,a1,a2
    205c:	01055793          	srli	a5,a0,0x10
    2060:	029684b3          	mul	s1,a3,s1
    2064:	009585b3          	add	a1,a1,s1
    2068:	00b785b3          	add	a1,a5,a1
    206c:	02c68633          	mul	a2,a3,a2
    2070:	0095f463          	bgeu	a1,s1,2078 <__umoddi3+0x360>
    2074:	00660633          	add	a2,a2,t1
    2078:	00010337          	lui	t1,0x10
    207c:	fff30313          	addi	t1,t1,-1 # ffff <_app_prog_size+0x7fff>
    2080:	0105d693          	srli	a3,a1,0x10
    2084:	0065f5b3          	and	a1,a1,t1
    2088:	01059593          	slli	a1,a1,0x10
    208c:	00657533          	and	a0,a0,t1
    2090:	00c686b3          	add	a3,a3,a2
    2094:	00a58533          	add	a0,a1,a0
    2098:	0cd76863          	bltu	a4,a3,2168 <__umoddi3+0x450>
    209c:	0cd70263          	beq	a4,a3,2160 <__umoddi3+0x448>
    20a0:	00412783          	lw	a5,4(sp)
    20a4:	40d706b3          	sub	a3,a4,a3
    20a8:	40a78433          	sub	s0,a5,a0
    20ac:	0087b5b3          	sltu	a1,a5,s0
    20b0:	40b685b3          	sub	a1,a3,a1
    20b4:	007593b3          	sll	t2,a1,t2
    20b8:	00545533          	srl	a0,s0,t0
    20bc:	00a3e533          	or	a0,t2,a0
    20c0:	0055d5b3          	srl	a1,a1,t0
    20c4:	00c12403          	lw	s0,12(sp)
    20c8:	00812483          	lw	s1,8(sp)
    20cc:	01010113          	addi	sp,sp,16
    20d0:	00008067          	ret
    20d4:	00731333          	sll	t1,t1,t2
    20d8:	00f5d733          	srl	a4,a1,a5
    20dc:	01035613          	srli	a2,t1,0x10
    20e0:	02c75433          	divu	s0,a4,a2
    20e4:	01031293          	slli	t0,t1,0x10
    20e8:	0102d293          	srli	t0,t0,0x10
    20ec:	00f557b3          	srl	a5,a0,a5
    20f0:	007595b3          	sll	a1,a1,t2
    20f4:	00b7e5b3          	or	a1,a5,a1
    20f8:	0105d693          	srli	a3,a1,0x10
    20fc:	007514b3          	sll	s1,a0,t2
    2100:	02c77733          	remu	a4,a4,a2
    2104:	02828433          	mul	s0,t0,s0
    2108:	01071713          	slli	a4,a4,0x10
    210c:	00d767b3          	or	a5,a4,a3
    2110:	0087fa63          	bgeu	a5,s0,2124 <__umoddi3+0x40c>
    2114:	006787b3          	add	a5,a5,t1
    2118:	0067e663          	bltu	a5,t1,2124 <__umoddi3+0x40c>
    211c:	0087f463          	bgeu	a5,s0,2124 <__umoddi3+0x40c>
    2120:	006787b3          	add	a5,a5,t1
    2124:	408787b3          	sub	a5,a5,s0
    2128:	02c7d733          	divu	a4,a5,a2
    212c:	01059693          	slli	a3,a1,0x10
    2130:	0106d693          	srli	a3,a3,0x10
    2134:	02c7f7b3          	remu	a5,a5,a2
    2138:	02e28733          	mul	a4,t0,a4
    213c:	01079593          	slli	a1,a5,0x10
    2140:	00d5e5b3          	or	a1,a1,a3
    2144:	00e5fa63          	bgeu	a1,a4,2158 <__umoddi3+0x440>
    2148:	006585b3          	add	a1,a1,t1
    214c:	0065e663          	bltu	a1,t1,2158 <__umoddi3+0x440>
    2150:	00e5f463          	bgeu	a1,a4,2158 <__umoddi3+0x440>
    2154:	006585b3          	add	a1,a1,t1
    2158:	40e585b3          	sub	a1,a1,a4
    215c:	cfdff06f          	j	1e58 <__umoddi3+0x140>
    2160:	00412783          	lw	a5,4(sp)
    2164:	f2a7fee3          	bgeu	a5,a0,20a0 <__umoddi3+0x388>
    2168:	00012783          	lw	a5,0(sp)
    216c:	40f50633          	sub	a2,a0,a5
    2170:	00c53533          	sltu	a0,a0,a2
    2174:	00850433          	add	s0,a0,s0
    2178:	408686b3          	sub	a3,a3,s0
    217c:	00060513          	mv	a0,a2
    2180:	f21ff06f          	j	20a0 <__umoddi3+0x388>
    2184:	0106d393          	srli	t2,a3,0x10
    2188:	01000293          	li	t0,16
    218c:	d69ff06f          	j	1ef4 <__umoddi3+0x1dc>
    2190:	01035693          	srli	a3,t1,0x10
    2194:	01000793          	li	a5,16
    2198:	c91ff06f          	j	1e28 <__umoddi3+0x110>
    219c:	01065693          	srli	a3,a2,0x10
    21a0:	01000793          	li	a5,16
    21a4:	bb5ff06f          	j	1d58 <__umoddi3+0x40>
    21a8:	00068393          	mv	t2,a3
    21ac:	00000293          	li	t0,0
    21b0:	d45ff06f          	j	1ef4 <__umoddi3+0x1dc>
    21b4:	00068613          	mv	a2,a3
    21b8:	e75ff06f          	j	202c <__umoddi3+0x314>
    21bc:	00050493          	mv	s1,a0
    21c0:	e31ff06f          	j	1ff0 <__umoddi3+0x2d8>
    21c4:	00670733          	add	a4,a4,t1
    21c8:	cb9ff06f          	j	1e80 <__umoddi3+0x168>

000021cc <__muldf3>:
__muldf3():
    21cc:	fd010113          	addi	sp,sp,-48
    21d0:	0145d293          	srli	t0,a1,0x14
    21d4:	00c59793          	slli	a5,a1,0xc
    21d8:	02112623          	sw	ra,44(sp)
    21dc:	02812423          	sw	s0,40(sp)
    21e0:	02912223          	sw	s1,36(sp)
    21e4:	7ff2f293          	andi	t0,t0,2047
    21e8:	00050713          	mv	a4,a0
    21ec:	00c7d793          	srli	a5,a5,0xc
    21f0:	01f5d593          	srli	a1,a1,0x1f
    21f4:	16028663          	beqz	t0,2360 <__muldf3+0x194>
    21f8:	00050493          	mv	s1,a0
    21fc:	7ff00513          	li	a0,2047
    2200:	26a28c63          	beq	t0,a0,2478 <__muldf3+0x2ac>
    2204:	00379793          	slli	a5,a5,0x3
    2208:	01d75413          	srli	s0,a4,0x1d
    220c:	00f46433          	or	s0,s0,a5
    2210:	00800537          	lui	a0,0x800
    2214:	c0128793          	addi	a5,t0,-1023
    2218:	00f12023          	sw	a5,0(sp)
    221c:	00a46433          	or	s0,s0,a0
    2220:	00371493          	slli	s1,a4,0x3
    2224:	00000793          	li	a5,0
    2228:	00000313          	li	t1,0
    222c:	0146d293          	srli	t0,a3,0x14
    2230:	00c69713          	slli	a4,a3,0xc
    2234:	7ff2f293          	andi	t0,t0,2047
    2238:	00060393          	mv	t2,a2
    223c:	00c75713          	srli	a4,a4,0xc
    2240:	01f6d693          	srli	a3,a3,0x1f
    2244:	1a028663          	beqz	t0,23f0 <__muldf3+0x224>
    2248:	7ff00513          	li	a0,2047
    224c:	06a28663          	beq	t0,a0,22b8 <__muldf3+0xec>
    2250:	00371713          	slli	a4,a4,0x3
    2254:	01d65513          	srli	a0,a2,0x1d
    2258:	00e56533          	or	a0,a0,a4
    225c:	00800737          	lui	a4,0x800
    2260:	00e56533          	or	a0,a0,a4
    2264:	00012703          	lw	a4,0(sp)
    2268:	c0128293          	addi	t0,t0,-1023
    226c:	00361393          	slli	t2,a2,0x3
    2270:	00570733          	add	a4,a4,t0
    2274:	00e12023          	sw	a4,0(sp)
    2278:	00000293          	li	t0,0
    227c:	00d5c733          	xor	a4,a1,a3
    2280:	00070613          	mv	a2,a4
    2284:	00e12223          	sw	a4,4(sp)
    2288:	00012703          	lw	a4,0(sp)
    228c:	00170713          	addi	a4,a4,1 # 800001 <_app_prog_size+0x7f8001>
    2290:	00e12423          	sw	a4,8(sp)
    2294:	00f00713          	li	a4,15
    2298:	26f76663          	bltu	a4,a5,2504 <__muldf3+0x338>
    229c:	1fffe717          	auipc	a4,0x1fffe
    22a0:	23070713          	addi	a4,a4,560 # 200004cc <_sram_base_addr+0x4cc>
    22a4:	00279793          	slli	a5,a5,0x2
    22a8:	00e787b3          	add	a5,a5,a4
    22ac:	0007a783          	lw	a5,0(a5) # 1000000 <_app_prog_size+0xff8000>
    22b0:	00e78733          	add	a4,a5,a4
    22b4:	00070067          	jr	a4
    22b8:	00c76533          	or	a0,a4,a2
    22bc:	00012603          	lw	a2,0(sp)
    22c0:	7ff60613          	addi	a2,a2,2047
    22c4:	00c12023          	sw	a2,0(sp)
    22c8:	20051663          	bnez	a0,24d4 <__muldf3+0x308>
    22cc:	0027e793          	ori	a5,a5,2
    22d0:	00000393          	li	t2,0
    22d4:	00200293          	li	t0,2
    22d8:	fa5ff06f          	j	227c <__muldf3+0xb0>
    22dc:	00012223          	sw	zero,4(sp)
    22e0:	7ff00793          	li	a5,2047
    22e4:	00080437          	lui	s0,0x80
    22e8:	00000493          	li	s1,0
    22ec:	00412703          	lw	a4,4(sp)
    22f0:	00c41413          	slli	s0,s0,0xc
    22f4:	01479793          	slli	a5,a5,0x14
    22f8:	00c45413          	srli	s0,s0,0xc
    22fc:	01f71713          	slli	a4,a4,0x1f
    2300:	00f46433          	or	s0,s0,a5
    2304:	00e46433          	or	s0,s0,a4
    2308:	00040593          	mv	a1,s0
    230c:	02c12083          	lw	ra,44(sp)
    2310:	02812403          	lw	s0,40(sp)
    2314:	00048513          	mv	a0,s1
    2318:	02412483          	lw	s1,36(sp)
    231c:	03010113          	addi	sp,sp,48
    2320:	00008067          	ret
    2324:	00068613          	mv	a2,a3
    2328:	00050413          	mv	s0,a0
    232c:	00038493          	mv	s1,t2
    2330:	00028313          	mv	t1,t0
    2334:	00200793          	li	a5,2
    2338:	1af30c63          	beq	t1,a5,24f0 <__muldf3+0x324>
    233c:	00300793          	li	a5,3
    2340:	f8f30ee3          	beq	t1,a5,22dc <__muldf3+0x110>
    2344:	00100793          	li	a5,1
    2348:	00c12223          	sw	a2,4(sp)
    234c:	5cf31a63          	bne	t1,a5,2920 <__muldf3+0x754>
    2350:	00000793          	li	a5,0
    2354:	00000413          	li	s0,0
    2358:	00000493          	li	s1,0
    235c:	f91ff06f          	j	22ec <__muldf3+0x120>
    2360:	00a7e433          	or	s0,a5,a0
    2364:	14040e63          	beqz	s0,24c0 <__muldf3+0x2f4>
    2368:	00d12823          	sw	a3,16(sp)
    236c:	00c12623          	sw	a2,12(sp)
    2370:	46078e63          	beqz	a5,27ec <__muldf3+0x620>
    2374:	00a12423          	sw	a0,8(sp)
    2378:	00078513          	mv	a0,a5
    237c:	00b12223          	sw	a1,4(sp)
    2380:	00f12023          	sw	a5,0(sp)
    2384:	225000ef          	jal	ra,2da8 <__clzsi2>
    2388:	00012783          	lw	a5,0(sp)
    238c:	00412583          	lw	a1,4(sp)
    2390:	00812703          	lw	a4,8(sp)
    2394:	00c12603          	lw	a2,12(sp)
    2398:	01012683          	lw	a3,16(sp)
    239c:	00050293          	mv	t0,a0
    23a0:	ff550313          	addi	t1,a0,-11 # 7ffff5 <_app_prog_size+0x7f7ff5>
    23a4:	01d00413          	li	s0,29
    23a8:	ff828493          	addi	s1,t0,-8
    23ac:	40640433          	sub	s0,s0,t1
    23b0:	009797b3          	sll	a5,a5,s1
    23b4:	00875433          	srl	s0,a4,s0
    23b8:	00f46433          	or	s0,s0,a5
    23bc:	009714b3          	sll	s1,a4,s1
    23c0:	c0d00513          	li	a0,-1011
    23c4:	405507b3          	sub	a5,a0,t0
    23c8:	0146d293          	srli	t0,a3,0x14
    23cc:	00c69713          	slli	a4,a3,0xc
    23d0:	00f12023          	sw	a5,0(sp)
    23d4:	7ff2f293          	andi	t0,t0,2047
    23d8:	00000793          	li	a5,0
    23dc:	00000313          	li	t1,0
    23e0:	00060393          	mv	t2,a2
    23e4:	00c75713          	srli	a4,a4,0xc
    23e8:	01f6d693          	srli	a3,a3,0x1f
    23ec:	e4029ee3          	bnez	t0,2248 <__muldf3+0x7c>
    23f0:	00c76533          	or	a0,a4,a2
    23f4:	0a050263          	beqz	a0,2498 <__muldf3+0x2cc>
    23f8:	38070663          	beqz	a4,2784 <__muldf3+0x5b8>
    23fc:	00070513          	mv	a0,a4
    2400:	00c12e23          	sw	a2,28(sp)
    2404:	00f12c23          	sw	a5,24(sp)
    2408:	00d12a23          	sw	a3,20(sp)
    240c:	00612823          	sw	t1,16(sp)
    2410:	00b12623          	sw	a1,12(sp)
    2414:	00e12423          	sw	a4,8(sp)
    2418:	191000ef          	jal	ra,2da8 <__clzsi2>
    241c:	ff550793          	addi	a5,a0,-11
    2420:	00f12223          	sw	a5,4(sp)
    2424:	00812703          	lw	a4,8(sp)
    2428:	00c12583          	lw	a1,12(sp)
    242c:	01012303          	lw	t1,16(sp)
    2430:	01412683          	lw	a3,20(sp)
    2434:	01812783          	lw	a5,24(sp)
    2438:	01c12603          	lw	a2,28(sp)
    243c:	00050293          	mv	t0,a0
    2440:	00412383          	lw	t2,4(sp)
    2444:	01d00513          	li	a0,29
    2448:	40750533          	sub	a0,a0,t2
    244c:	ff828393          	addi	t2,t0,-8
    2450:	00771733          	sll	a4,a4,t2
    2454:	00a65533          	srl	a0,a2,a0
    2458:	00e56533          	or	a0,a0,a4
    245c:	007613b3          	sll	t2,a2,t2
    2460:	00012703          	lw	a4,0(sp)
    2464:	405702b3          	sub	t0,a4,t0
    2468:	c0d28713          	addi	a4,t0,-1011
    246c:	00e12023          	sw	a4,0(sp)
    2470:	00000293          	li	t0,0
    2474:	e09ff06f          	j	227c <__muldf3+0xb0>
    2478:	00e7e433          	or	s0,a5,a4
    247c:	02041663          	bnez	s0,24a8 <__muldf3+0x2dc>
    2480:	7ff00713          	li	a4,2047
    2484:	00800793          	li	a5,8
    2488:	00000493          	li	s1,0
    248c:	00e12023          	sw	a4,0(sp)
    2490:	00200313          	li	t1,2
    2494:	d99ff06f          	j	222c <__muldf3+0x60>
    2498:	0017e793          	ori	a5,a5,1
    249c:	00000393          	li	t2,0
    24a0:	00100293          	li	t0,1
    24a4:	dd9ff06f          	j	227c <__muldf3+0xb0>
    24a8:	7ff00713          	li	a4,2047
    24ac:	00078413          	mv	s0,a5
    24b0:	00e12023          	sw	a4,0(sp)
    24b4:	00c00793          	li	a5,12
    24b8:	00300313          	li	t1,3
    24bc:	d71ff06f          	j	222c <__muldf3+0x60>
    24c0:	00400793          	li	a5,4
    24c4:	00000493          	li	s1,0
    24c8:	00012023          	sw	zero,0(sp)
    24cc:	00100313          	li	t1,1
    24d0:	d5dff06f          	j	222c <__muldf3+0x60>
    24d4:	0037e793          	ori	a5,a5,3
    24d8:	00070513          	mv	a0,a4
    24dc:	00300293          	li	t0,3
    24e0:	d9dff06f          	j	227c <__muldf3+0xb0>
    24e4:	00200793          	li	a5,2
    24e8:	00058613          	mv	a2,a1
    24ec:	e4f318e3          	bne	t1,a5,233c <__muldf3+0x170>
    24f0:	00c12223          	sw	a2,4(sp)
    24f4:	7ff00793          	li	a5,2047
    24f8:	00000413          	li	s0,0
    24fc:	00000493          	li	s1,0
    2500:	dedff06f          	j	22ec <__muldf3+0x120>
    2504:	00010637          	lui	a2,0x10
    2508:	fff60713          	addi	a4,a2,-1 # ffff <_app_prog_size+0x7fff>
    250c:	0104d793          	srli	a5,s1,0x10
    2510:	0103d293          	srli	t0,t2,0x10
    2514:	00e4f4b3          	and	s1,s1,a4
    2518:	00e3f3b3          	and	t2,t2,a4
    251c:	029386b3          	mul	a3,t2,s1
    2520:	027785b3          	mul	a1,a5,t2
    2524:	0106d313          	srli	t1,a3,0x10
    2528:	02928733          	mul	a4,t0,s1
    252c:	00b70733          	add	a4,a4,a1
    2530:	00e30733          	add	a4,t1,a4
    2534:	02578333          	mul	t1,a5,t0
    2538:	00612823          	sw	t1,16(sp)
    253c:	00b77663          	bgeu	a4,a1,2548 <__muldf3+0x37c>
    2540:	00c30633          	add	a2,t1,a2
    2544:	00c12823          	sw	a2,16(sp)
    2548:	000105b7          	lui	a1,0x10
    254c:	fff58613          	addi	a2,a1,-1 # ffff <_app_prog_size+0x7fff>
    2550:	01055313          	srli	t1,a0,0x10
    2554:	00c57533          	and	a0,a0,a2
    2558:	00612623          	sw	t1,12(sp)
    255c:	00a12e23          	sw	a0,28(sp)
    2560:	00050313          	mv	t1,a0
    2564:	00c77533          	and	a0,a4,a2
    2568:	00c6f6b3          	and	a3,a3,a2
    256c:	01075713          	srli	a4,a4,0x10
    2570:	01051513          	slli	a0,a0,0x10
    2574:	00030613          	mv	a2,t1
    2578:	00e12a23          	sw	a4,20(sp)
    257c:	00d50733          	add	a4,a0,a3
    2580:	00e12c23          	sw	a4,24(sp)
    2584:	02c78733          	mul	a4,a5,a2
    2588:	00c12603          	lw	a2,12(sp)
    258c:	02930333          	mul	t1,t1,s1
    2590:	029604b3          	mul	s1,a2,s1
    2594:	01035693          	srli	a3,t1,0x10
    2598:	00e484b3          	add	s1,s1,a4
    259c:	009684b3          	add	s1,a3,s1
    25a0:	02c787b3          	mul	a5,a5,a2
    25a4:	00e4f463          	bgeu	s1,a4,25ac <__muldf3+0x3e0>
    25a8:	00b787b3          	add	a5,a5,a1
    25ac:	00010637          	lui	a2,0x10
    25b0:	fff60693          	addi	a3,a2,-1 # ffff <_app_prog_size+0x7fff>
    25b4:	00d4f5b3          	and	a1,s1,a3
    25b8:	0104d493          	srli	s1,s1,0x10
    25bc:	00f484b3          	add	s1,s1,a5
    25c0:	01412783          	lw	a5,20(sp)
    25c4:	00d37333          	and	t1,t1,a3
    25c8:	01059593          	slli	a1,a1,0x10
    25cc:	00658333          	add	t1,a1,t1
    25d0:	01045713          	srli	a4,s0,0x10
    25d4:	006787b3          	add	a5,a5,t1
    25d8:	00d47433          	and	s0,s0,a3
    25dc:	02838533          	mul	a0,t2,s0
    25e0:	00f12a23          	sw	a5,20(sp)
    25e4:	027703b3          	mul	t2,a4,t2
    25e8:	01055693          	srli	a3,a0,0x10
    25ec:	028287b3          	mul	a5,t0,s0
    25f0:	007787b3          	add	a5,a5,t2
    25f4:	00f687b3          	add	a5,a3,a5
    25f8:	02e282b3          	mul	t0,t0,a4
    25fc:	0077f463          	bgeu	a5,t2,2604 <__muldf3+0x438>
    2600:	00c282b3          	add	t0,t0,a2
    2604:	000106b7          	lui	a3,0x10
    2608:	fff68593          	addi	a1,a3,-1 # ffff <_app_prog_size+0x7fff>
    260c:	00b7f633          	and	a2,a5,a1
    2610:	0107d793          	srli	a5,a5,0x10
    2614:	005787b3          	add	a5,a5,t0
    2618:	00078393          	mv	t2,a5
    261c:	00c12283          	lw	t0,12(sp)
    2620:	01c12783          	lw	a5,28(sp)
    2624:	00b57533          	and	a0,a0,a1
    2628:	01061613          	slli	a2,a2,0x10
    262c:	028785b3          	mul	a1,a5,s0
    2630:	00a60633          	add	a2,a2,a0
    2634:	02828433          	mul	s0,t0,s0
    2638:	02f70533          	mul	a0,a4,a5
    263c:	0105d793          	srli	a5,a1,0x10
    2640:	00a40433          	add	s0,s0,a0
    2644:	00878433          	add	s0,a5,s0
    2648:	02e28733          	mul	a4,t0,a4
    264c:	00a47463          	bgeu	s0,a0,2654 <__muldf3+0x488>
    2650:	00d70733          	add	a4,a4,a3
    2654:	000107b7          	lui	a5,0x10
    2658:	fff78793          	addi	a5,a5,-1 # ffff <_app_prog_size+0x7fff>
    265c:	00f476b3          	and	a3,s0,a5
    2660:	01012503          	lw	a0,16(sp)
    2664:	00f5f7b3          	and	a5,a1,a5
    2668:	01412583          	lw	a1,20(sp)
    266c:	01069693          	slli	a3,a3,0x10
    2670:	00f687b3          	add	a5,a3,a5
    2674:	00a582b3          	add	t0,a1,a0
    2678:	0062b333          	sltu	t1,t0,t1
    267c:	009787b3          	add	a5,a5,s1
    2680:	00c282b3          	add	t0,t0,a2
    2684:	006786b3          	add	a3,a5,t1
    2688:	00c2b633          	sltu	a2,t0,a2
    268c:	00038513          	mv	a0,t2
    2690:	007683b3          	add	t2,a3,t2
    2694:	00c385b3          	add	a1,t2,a2
    2698:	0097b7b3          	sltu	a5,a5,s1
    269c:	0066b333          	sltu	t1,a3,t1
    26a0:	0067e7b3          	or	a5,a5,t1
    26a4:	00a3b3b3          	sltu	t2,t2,a0
    26a8:	00c5b633          	sltu	a2,a1,a2
    26ac:	01045413          	srli	s0,s0,0x10
    26b0:	00878433          	add	s0,a5,s0
    26b4:	00c3e633          	or	a2,t2,a2
    26b8:	01812783          	lw	a5,24(sp)
    26bc:	00c40433          	add	s0,s0,a2
    26c0:	00929493          	slli	s1,t0,0x9
    26c4:	00e40733          	add	a4,s0,a4
    26c8:	00f4e4b3          	or	s1,s1,a5
    26cc:	0175d513          	srli	a0,a1,0x17
    26d0:	00971413          	slli	s0,a4,0x9
    26d4:	009034b3          	snez	s1,s1
    26d8:	0172d293          	srli	t0,t0,0x17
    26dc:	00a46433          	or	s0,s0,a0
    26e0:	0054e4b3          	or	s1,s1,t0
    26e4:	00959593          	slli	a1,a1,0x9
    26e8:	00741793          	slli	a5,s0,0x7
    26ec:	00b4e4b3          	or	s1,s1,a1
    26f0:	0207d263          	bgez	a5,2714 <__muldf3+0x548>
    26f4:	0014d793          	srli	a5,s1,0x1
    26f8:	0014f493          	andi	s1,s1,1
    26fc:	0097e4b3          	or	s1,a5,s1
    2700:	00812783          	lw	a5,8(sp)
    2704:	01f41713          	slli	a4,s0,0x1f
    2708:	00e4e4b3          	or	s1,s1,a4
    270c:	00145413          	srli	s0,s0,0x1
    2710:	00f12023          	sw	a5,0(sp)
    2714:	00012783          	lw	a5,0(sp)
    2718:	3ff78793          	addi	a5,a5,1023
    271c:	10f05a63          	blez	a5,2830 <__muldf3+0x664>
    2720:	0074f713          	andi	a4,s1,7
    2724:	02070063          	beqz	a4,2744 <__muldf3+0x578>
    2728:	00f4f713          	andi	a4,s1,15
    272c:	00400693          	li	a3,4
    2730:	00d70a63          	beq	a4,a3,2744 <__muldf3+0x578>
    2734:	00448713          	addi	a4,s1,4
    2738:	009734b3          	sltu	s1,a4,s1
    273c:	00940433          	add	s0,s0,s1
    2740:	00070493          	mv	s1,a4
    2744:	00741713          	slli	a4,s0,0x7
    2748:	00075c63          	bgez	a4,2760 <__muldf3+0x594>
    274c:	ff0007b7          	lui	a5,0xff000
    2750:	fff78793          	addi	a5,a5,-1 # feffffff <_sp+0xdeffbfff>
    2754:	00f47433          	and	s0,s0,a5
    2758:	00012783          	lw	a5,0(sp)
    275c:	40078793          	addi	a5,a5,1024
    2760:	7fe00713          	li	a4,2046
    2764:	1af74663          	blt	a4,a5,2910 <__muldf3+0x744>
    2768:	0034d713          	srli	a4,s1,0x3
    276c:	01d41493          	slli	s1,s0,0x1d
    2770:	00941413          	slli	s0,s0,0x9
    2774:	00e4e4b3          	or	s1,s1,a4
    2778:	00c45413          	srli	s0,s0,0xc
    277c:	7ff7f793          	andi	a5,a5,2047
    2780:	b6dff06f          	j	22ec <__muldf3+0x120>
    2784:	00060513          	mv	a0,a2
    2788:	02f12023          	sw	a5,32(sp)
    278c:	00e12e23          	sw	a4,28(sp)
    2790:	00d12c23          	sw	a3,24(sp)
    2794:	00612a23          	sw	t1,20(sp)
    2798:	00b12823          	sw	a1,16(sp)
    279c:	00c12623          	sw	a2,12(sp)
    27a0:	608000ef          	jal	ra,2da8 <__clzsi2>
    27a4:	00050793          	mv	a5,a0
    27a8:	00a12423          	sw	a0,8(sp)
    27ac:	01550513          	addi	a0,a0,21
    27b0:	00a12223          	sw	a0,4(sp)
    27b4:	01c00393          	li	t2,28
    27b8:	02078293          	addi	t0,a5,32
    27bc:	00c12603          	lw	a2,12(sp)
    27c0:	01012583          	lw	a1,16(sp)
    27c4:	01412303          	lw	t1,20(sp)
    27c8:	01812683          	lw	a3,24(sp)
    27cc:	01c12703          	lw	a4,28(sp)
    27d0:	02012783          	lw	a5,32(sp)
    27d4:	c6a3d6e3          	bge	t2,a0,2440 <__muldf3+0x274>
    27d8:	00812703          	lw	a4,8(sp)
    27dc:	00000393          	li	t2,0
    27e0:	ff870513          	addi	a0,a4,-8
    27e4:	00a61533          	sll	a0,a2,a0
    27e8:	c79ff06f          	j	2460 <__muldf3+0x294>
    27ec:	00f12423          	sw	a5,8(sp)
    27f0:	00b12223          	sw	a1,4(sp)
    27f4:	00a12023          	sw	a0,0(sp)
    27f8:	5b0000ef          	jal	ra,2da8 <__clzsi2>
    27fc:	01550313          	addi	t1,a0,21
    2800:	01c00393          	li	t2,28
    2804:	02050293          	addi	t0,a0,32
    2808:	00012703          	lw	a4,0(sp)
    280c:	00412583          	lw	a1,4(sp)
    2810:	00812783          	lw	a5,8(sp)
    2814:	00c12603          	lw	a2,12(sp)
    2818:	01012683          	lw	a3,16(sp)
    281c:	b863d4e3          	bge	t2,t1,23a4 <__muldf3+0x1d8>
    2820:	ff850513          	addi	a0,a0,-8
    2824:	00a71433          	sll	s0,a4,a0
    2828:	00000493          	li	s1,0
    282c:	b95ff06f          	j	23c0 <__muldf3+0x1f4>
    2830:	00100713          	li	a4,1
    2834:	40f70733          	sub	a4,a4,a5
    2838:	06079263          	bnez	a5,289c <__muldf3+0x6d0>
    283c:	00012783          	lw	a5,0(sp)
    2840:	41e78513          	addi	a0,a5,1054
    2844:	00a497b3          	sll	a5,s1,a0
    2848:	00e4d4b3          	srl	s1,s1,a4
    284c:	00a41533          	sll	a0,s0,a0
    2850:	00f037b3          	snez	a5,a5
    2854:	009564b3          	or	s1,a0,s1
    2858:	00f4e4b3          	or	s1,s1,a5
    285c:	0074f793          	andi	a5,s1,7
    2860:	00e45733          	srl	a4,s0,a4
    2864:	02078063          	beqz	a5,2884 <__muldf3+0x6b8>
    2868:	00f4f793          	andi	a5,s1,15
    286c:	00400693          	li	a3,4
    2870:	00d78a63          	beq	a5,a3,2884 <__muldf3+0x6b8>
    2874:	00448793          	addi	a5,s1,4
    2878:	0097b4b3          	sltu	s1,a5,s1
    287c:	00970733          	add	a4,a4,s1
    2880:	00078493          	mv	s1,a5
    2884:	00871793          	slli	a5,a4,0x8
    2888:	0607d663          	bgez	a5,28f4 <__muldf3+0x728>
    288c:	00100793          	li	a5,1
    2890:	00000413          	li	s0,0
    2894:	00000493          	li	s1,0
    2898:	a55ff06f          	j	22ec <__muldf3+0x120>
    289c:	03800693          	li	a3,56
    28a0:	aae6c8e3          	blt	a3,a4,2350 <__muldf3+0x184>
    28a4:	01f00693          	li	a3,31
    28a8:	f8e6dae3          	bge	a3,a4,283c <__muldf3+0x670>
    28ac:	fe100693          	li	a3,-31
    28b0:	40f687b3          	sub	a5,a3,a5
    28b4:	02000613          	li	a2,32
    28b8:	00f456b3          	srl	a3,s0,a5
    28bc:	00c70a63          	beq	a4,a2,28d0 <__muldf3+0x704>
    28c0:	00012783          	lw	a5,0(sp)
    28c4:	43e78793          	addi	a5,a5,1086
    28c8:	00f41433          	sll	s0,s0,a5
    28cc:	0084e4b3          	or	s1,s1,s0
    28d0:	009034b3          	snez	s1,s1
    28d4:	00d4e4b3          	or	s1,s1,a3
    28d8:	0074f713          	andi	a4,s1,7
    28dc:	00000413          	li	s0,0
    28e0:	02070063          	beqz	a4,2900 <__muldf3+0x734>
    28e4:	00f4f793          	andi	a5,s1,15
    28e8:	00400693          	li	a3,4
    28ec:	00000713          	li	a4,0
    28f0:	f8d792e3          	bne	a5,a3,2874 <__muldf3+0x6a8>
    28f4:	00971413          	slli	s0,a4,0x9
    28f8:	00c45413          	srli	s0,s0,0xc
    28fc:	01d71713          	slli	a4,a4,0x1d
    2900:	0034d493          	srli	s1,s1,0x3
    2904:	00e4e4b3          	or	s1,s1,a4
    2908:	00000793          	li	a5,0
    290c:	9e1ff06f          	j	22ec <__muldf3+0x120>
    2910:	7ff00793          	li	a5,2047
    2914:	00000413          	li	s0,0
    2918:	00000493          	li	s1,0
    291c:	9d1ff06f          	j	22ec <__muldf3+0x120>
    2920:	00812783          	lw	a5,8(sp)
    2924:	00f12023          	sw	a5,0(sp)
    2928:	dedff06f          	j	2714 <__muldf3+0x548>

0000292c <__fixunssfsi>:
__fixunssfsi():
    292c:	01755713          	srli	a4,a0,0x17
    2930:	00800637          	lui	a2,0x800
    2934:	fff60793          	addi	a5,a2,-1 # 7fffff <_app_prog_size+0x7f7fff>
    2938:	0ff77713          	andi	a4,a4,255
    293c:	07e00593          	li	a1,126
    2940:	00a7f6b3          	and	a3,a5,a0
    2944:	01f55793          	srli	a5,a0,0x1f
    2948:	00000513          	li	a0,0
    294c:	00e5f663          	bgeu	a1,a4,2958 <__fixunssfsi+0x2c>
    2950:	00078663          	beqz	a5,295c <__fixunssfsi+0x30>
    2954:	00008067          	ret
    2958:	00008067          	ret
    295c:	09e00793          	li	a5,158
    2960:	fff00513          	li	a0,-1
    2964:	fee7e8e3          	bltu	a5,a4,2954 <__fixunssfsi+0x28>
    2968:	09500593          	li	a1,149
    296c:	00c6e7b3          	or	a5,a3,a2
    2970:	00e5d863          	bge	a1,a4,2980 <__fixunssfsi+0x54>
    2974:	f6a70713          	addi	a4,a4,-150
    2978:	00e79533          	sll	a0,a5,a4
    297c:	00008067          	ret
    2980:	09600513          	li	a0,150
    2984:	40e50733          	sub	a4,a0,a4
    2988:	00e7d533          	srl	a0,a5,a4
    298c:	00008067          	ret

00002990 <__floatunsisf>:
__floatunsisf():
    2990:	ff410113          	addi	sp,sp,-12
    2994:	00112423          	sw	ra,8(sp)
    2998:	00812223          	sw	s0,4(sp)
    299c:	04050c63          	beqz	a0,29f4 <__floatunsisf+0x64>
    29a0:	00050413          	mv	s0,a0
    29a4:	404000ef          	jal	ra,2da8 <__clzsi2>
    29a8:	09e00793          	li	a5,158
    29ac:	40a78733          	sub	a4,a5,a0
    29b0:	09600793          	li	a5,150
    29b4:	06e7c463          	blt	a5,a4,2a1c <__floatunsisf+0x8c>
    29b8:	00800693          	li	a3,8
    29bc:	0ff77793          	andi	a5,a4,255
    29c0:	00a6d663          	bge	a3,a0,29cc <__floatunsisf+0x3c>
    29c4:	ff850513          	addi	a0,a0,-8
    29c8:	00a41433          	sll	s0,s0,a0
    29cc:	00941413          	slli	s0,s0,0x9
    29d0:	00945413          	srli	s0,s0,0x9
    29d4:	00941413          	slli	s0,s0,0x9
    29d8:	00945513          	srli	a0,s0,0x9
    29dc:	00812083          	lw	ra,8(sp)
    29e0:	00412403          	lw	s0,4(sp)
    29e4:	01779793          	slli	a5,a5,0x17
    29e8:	00f56533          	or	a0,a0,a5
    29ec:	00c10113          	addi	sp,sp,12
    29f0:	00008067          	ret
    29f4:	00000413          	li	s0,0
    29f8:	00941413          	slli	s0,s0,0x9
    29fc:	00945513          	srli	a0,s0,0x9
    2a00:	00812083          	lw	ra,8(sp)
    2a04:	00412403          	lw	s0,4(sp)
    2a08:	00000793          	li	a5,0
    2a0c:	01779793          	slli	a5,a5,0x17
    2a10:	00f56533          	or	a0,a0,a5
    2a14:	00c10113          	addi	sp,sp,12
    2a18:	00008067          	ret
    2a1c:	09900793          	li	a5,153
    2a20:	02e7d063          	bge	a5,a4,2a40 <__floatunsisf+0xb0>
    2a24:	01b50693          	addi	a3,a0,27
    2a28:	00500793          	li	a5,5
    2a2c:	00d416b3          	sll	a3,s0,a3
    2a30:	40a787b3          	sub	a5,a5,a0
    2a34:	00d036b3          	snez	a3,a3
    2a38:	00f45433          	srl	s0,s0,a5
    2a3c:	0086e433          	or	s0,a3,s0
    2a40:	00500793          	li	a5,5
    2a44:	00a7d663          	bge	a5,a0,2a50 <__floatunsisf+0xc0>
    2a48:	ffb50793          	addi	a5,a0,-5
    2a4c:	00f41433          	sll	s0,s0,a5
    2a50:	fc0006b7          	lui	a3,0xfc000
    2a54:	fff68693          	addi	a3,a3,-1 # fbffffff <_sp+0xdbffbfff>
    2a58:	00747793          	andi	a5,s0,7
    2a5c:	00d47633          	and	a2,s0,a3
    2a60:	02078463          	beqz	a5,2a88 <__floatunsisf+0xf8>
    2a64:	00f47793          	andi	a5,s0,15
    2a68:	00400593          	li	a1,4
    2a6c:	00b78e63          	beq	a5,a1,2a88 <__floatunsisf+0xf8>
    2a70:	00460613          	addi	a2,a2,4
    2a74:	00561793          	slli	a5,a2,0x5
    2a78:	0007d863          	bgez	a5,2a88 <__floatunsisf+0xf8>
    2a7c:	09f00793          	li	a5,159
    2a80:	00d67633          	and	a2,a2,a3
    2a84:	40a78733          	sub	a4,a5,a0
    2a88:	00661413          	slli	s0,a2,0x6
    2a8c:	00945413          	srli	s0,s0,0x9
    2a90:	00941413          	slli	s0,s0,0x9
    2a94:	00945513          	srli	a0,s0,0x9
    2a98:	00812083          	lw	ra,8(sp)
    2a9c:	00412403          	lw	s0,4(sp)
    2aa0:	0ff77793          	andi	a5,a4,255
    2aa4:	01779793          	slli	a5,a5,0x17
    2aa8:	00f56533          	or	a0,a0,a5
    2aac:	00c10113          	addi	sp,sp,12
    2ab0:	00008067          	ret

00002ab4 <__extendsfdf2>:
__extendsfdf2():
    2ab4:	01755713          	srli	a4,a0,0x17
    2ab8:	0ff77713          	andi	a4,a4,255
    2abc:	ff410113          	addi	sp,sp,-12
    2ac0:	00170693          	addi	a3,a4,1
    2ac4:	00812223          	sw	s0,4(sp)
    2ac8:	00912023          	sw	s1,0(sp)
    2acc:	00951413          	slli	s0,a0,0x9
    2ad0:	00112423          	sw	ra,8(sp)
    2ad4:	0fe6f693          	andi	a3,a3,254
    2ad8:	00945413          	srli	s0,s0,0x9
    2adc:	01f55493          	srli	s1,a0,0x1f
    2ae0:	04068263          	beqz	a3,2b24 <__extendsfdf2+0x70>
    2ae4:	00345793          	srli	a5,s0,0x3
    2ae8:	38070713          	addi	a4,a4,896
    2aec:	01d41413          	slli	s0,s0,0x1d
    2af0:	00c79793          	slli	a5,a5,0xc
    2af4:	00040513          	mv	a0,s0
    2af8:	00812083          	lw	ra,8(sp)
    2afc:	00412403          	lw	s0,4(sp)
    2b00:	01471713          	slli	a4,a4,0x14
    2b04:	00c7d793          	srli	a5,a5,0xc
    2b08:	01f49493          	slli	s1,s1,0x1f
    2b0c:	00e7e7b3          	or	a5,a5,a4
    2b10:	0097e7b3          	or	a5,a5,s1
    2b14:	00078593          	mv	a1,a5
    2b18:	00012483          	lw	s1,0(sp)
    2b1c:	00c10113          	addi	sp,sp,12
    2b20:	00008067          	ret
    2b24:	04071263          	bnez	a4,2b68 <__extendsfdf2+0xb4>
    2b28:	06040863          	beqz	s0,2b98 <__extendsfdf2+0xe4>
    2b2c:	00040513          	mv	a0,s0
    2b30:	278000ef          	jal	ra,2da8 <__clzsi2>
    2b34:	00a00793          	li	a5,10
    2b38:	06a7c663          	blt	a5,a0,2ba4 <__extendsfdf2+0xf0>
    2b3c:	00b00713          	li	a4,11
    2b40:	40a70733          	sub	a4,a4,a0
    2b44:	01550793          	addi	a5,a0,21
    2b48:	00e45733          	srl	a4,s0,a4
    2b4c:	00f41433          	sll	s0,s0,a5
    2b50:	00c71793          	slli	a5,a4,0xc
    2b54:	38900713          	li	a4,905
    2b58:	40a70733          	sub	a4,a4,a0
    2b5c:	00c7d793          	srli	a5,a5,0xc
    2b60:	7ff77713          	andi	a4,a4,2047
    2b64:	f8dff06f          	j	2af0 <__extendsfdf2+0x3c>
    2b68:	02040263          	beqz	s0,2b8c <__extendsfdf2+0xd8>
    2b6c:	00345713          	srli	a4,s0,0x3
    2b70:	000807b7          	lui	a5,0x80
    2b74:	00f767b3          	or	a5,a4,a5
    2b78:	00c79793          	slli	a5,a5,0xc
    2b7c:	01d41413          	slli	s0,s0,0x1d
    2b80:	00c7d793          	srli	a5,a5,0xc
    2b84:	7ff00713          	li	a4,2047
    2b88:	f69ff06f          	j	2af0 <__extendsfdf2+0x3c>
    2b8c:	7ff00713          	li	a4,2047
    2b90:	00000793          	li	a5,0
    2b94:	f5dff06f          	j	2af0 <__extendsfdf2+0x3c>
    2b98:	00000713          	li	a4,0
    2b9c:	00000793          	li	a5,0
    2ba0:	f51ff06f          	j	2af0 <__extendsfdf2+0x3c>
    2ba4:	ff550713          	addi	a4,a0,-11
    2ba8:	00e41733          	sll	a4,s0,a4
    2bac:	00000413          	li	s0,0
    2bb0:	fa1ff06f          	j	2b50 <__extendsfdf2+0x9c>

00002bb4 <__truncdfsf2>:
__truncdfsf2():
    2bb4:	0145d713          	srli	a4,a1,0x14
    2bb8:	00c59793          	slli	a5,a1,0xc
    2bbc:	7ff77713          	andi	a4,a4,2047
    2bc0:	00c7d793          	srli	a5,a5,0xc
    2bc4:	00170693          	addi	a3,a4,1
    2bc8:	00379793          	slli	a5,a5,0x3
    2bcc:	01d55613          	srli	a2,a0,0x1d
    2bd0:	7fe6f693          	andi	a3,a3,2046
    2bd4:	01f5d593          	srli	a1,a1,0x1f
    2bd8:	00f667b3          	or	a5,a2,a5
    2bdc:	00351313          	slli	t1,a0,0x3
    2be0:	0a068463          	beqz	a3,2c88 <__truncdfsf2+0xd4>
    2be4:	c8070693          	addi	a3,a4,-896
    2be8:	0fe00613          	li	a2,254
    2bec:	02d65463          	bge	a2,a3,2c14 <__truncdfsf2+0x60>
    2bf0:	00000793          	li	a5,0
    2bf4:	00979513          	slli	a0,a5,0x9
    2bf8:	0ff00713          	li	a4,255
    2bfc:	01771713          	slli	a4,a4,0x17
    2c00:	00955513          	srli	a0,a0,0x9
    2c04:	01f59593          	slli	a1,a1,0x1f
    2c08:	00e56533          	or	a0,a0,a4
    2c0c:	00b56533          	or	a0,a0,a1
    2c10:	00008067          	ret
    2c14:	0ed05e63          	blez	a3,2d10 <__truncdfsf2+0x15c>
    2c18:	00651513          	slli	a0,a0,0x6
    2c1c:	00a03733          	snez	a4,a0
    2c20:	00379793          	slli	a5,a5,0x3
    2c24:	00f767b3          	or	a5,a4,a5
    2c28:	01d35313          	srli	t1,t1,0x1d
    2c2c:	0067e7b3          	or	a5,a5,t1
    2c30:	0077f713          	andi	a4,a5,7
    2c34:	16070663          	beqz	a4,2da0 <__truncdfsf2+0x1ec>
    2c38:	00f7f713          	andi	a4,a5,15
    2c3c:	00400613          	li	a2,4
    2c40:	00c70463          	beq	a4,a2,2c48 <__truncdfsf2+0x94>
    2c44:	00478793          	addi	a5,a5,4 # 80004 <_app_prog_size+0x78004>
    2c48:	04000737          	lui	a4,0x4000
    2c4c:	00e7f733          	and	a4,a5,a4
    2c50:	14070863          	beqz	a4,2da0 <__truncdfsf2+0x1ec>
    2c54:	00168693          	addi	a3,a3,1
    2c58:	0ff00613          	li	a2,255
    2c5c:	0ff6f713          	andi	a4,a3,255
    2c60:	f8c688e3          	beq	a3,a2,2bf0 <__truncdfsf2+0x3c>
    2c64:	00679793          	slli	a5,a5,0x6
    2c68:	0097d793          	srli	a5,a5,0x9
    2c6c:	00979513          	slli	a0,a5,0x9
    2c70:	01771713          	slli	a4,a4,0x17
    2c74:	00955513          	srli	a0,a0,0x9
    2c78:	01f59593          	slli	a1,a1,0x1f
    2c7c:	00e56533          	or	a0,a0,a4
    2c80:	00b56533          	or	a0,a0,a1
    2c84:	00008067          	ret
    2c88:	0067e7b3          	or	a5,a5,t1
    2c8c:	02071a63          	bnez	a4,2cc0 <__truncdfsf2+0x10c>
    2c90:	04078e63          	beqz	a5,2cec <__truncdfsf2+0x138>
    2c94:	00500793          	li	a5,5
    2c98:	00679793          	slli	a5,a5,0x6
    2c9c:	0097d793          	srli	a5,a5,0x9
    2ca0:	00979513          	slli	a0,a5,0x9
    2ca4:	0ff77713          	andi	a4,a4,255
    2ca8:	01771713          	slli	a4,a4,0x17
    2cac:	00955513          	srli	a0,a0,0x9
    2cb0:	01f59593          	slli	a1,a1,0x1f
    2cb4:	00e56533          	or	a0,a0,a4
    2cb8:	00b56533          	or	a0,a0,a1
    2cbc:	00008067          	ret
    2cc0:	f20788e3          	beqz	a5,2bf0 <__truncdfsf2+0x3c>
    2cc4:	004007b7          	lui	a5,0x400
    2cc8:	00979513          	slli	a0,a5,0x9
    2ccc:	0ff00713          	li	a4,255
    2cd0:	01771713          	slli	a4,a4,0x17
    2cd4:	00000593          	li	a1,0
    2cd8:	00955513          	srli	a0,a0,0x9
    2cdc:	01f59593          	slli	a1,a1,0x1f
    2ce0:	00e56533          	or	a0,a0,a4
    2ce4:	00b56533          	or	a0,a0,a1
    2ce8:	00008067          	ret
    2cec:	00000793          	li	a5,0
    2cf0:	00979513          	slli	a0,a5,0x9
    2cf4:	00000713          	li	a4,0
    2cf8:	01771713          	slli	a4,a4,0x17
    2cfc:	00955513          	srli	a0,a0,0x9
    2d00:	01f59593          	slli	a1,a1,0x1f
    2d04:	00e56533          	or	a0,a0,a4
    2d08:	00b56533          	or	a0,a0,a1
    2d0c:	00008067          	ret
    2d10:	fe900613          	li	a2,-23
    2d14:	06c6c263          	blt	a3,a2,2d78 <__truncdfsf2+0x1c4>
    2d18:	01e00513          	li	a0,30
    2d1c:	00800637          	lui	a2,0x800
    2d20:	40d50533          	sub	a0,a0,a3
    2d24:	01f00293          	li	t0,31
    2d28:	00c7e7b3          	or	a5,a5,a2
    2d2c:	04a2da63          	bge	t0,a0,2d80 <__truncdfsf2+0x1cc>
    2d30:	ffe00613          	li	a2,-2
    2d34:	40d606b3          	sub	a3,a2,a3
    2d38:	02000613          	li	a2,32
    2d3c:	00d7d6b3          	srl	a3,a5,a3
    2d40:	00c50863          	beq	a0,a2,2d50 <__truncdfsf2+0x19c>
    2d44:	ca270713          	addi	a4,a4,-862 # 3fffca2 <_app_prog_size+0x3ff7ca2>
    2d48:	00e797b3          	sll	a5,a5,a4
    2d4c:	00f36333          	or	t1,t1,a5
    2d50:	006037b3          	snez	a5,t1
    2d54:	00d7e7b3          	or	a5,a5,a3
    2d58:	0077f713          	andi	a4,a5,7
    2d5c:	00000693          	li	a3,0
    2d60:	ec071ce3          	bnez	a4,2c38 <__truncdfsf2+0x84>
    2d64:	00579693          	slli	a3,a5,0x5
    2d68:	00100713          	li	a4,1
    2d6c:	ee06cce3          	bltz	a3,2c64 <__truncdfsf2+0xb0>
    2d70:	00000713          	li	a4,0
    2d74:	f25ff06f          	j	2c98 <__truncdfsf2+0xe4>
    2d78:	00000713          	li	a4,0
    2d7c:	f19ff06f          	j	2c94 <__truncdfsf2+0xe0>
    2d80:	c8270713          	addi	a4,a4,-894
    2d84:	00e316b3          	sll	a3,t1,a4
    2d88:	00d036b3          	snez	a3,a3
    2d8c:	00e797b3          	sll	a5,a5,a4
    2d90:	00a35333          	srl	t1,t1,a0
    2d94:	00f6e7b3          	or	a5,a3,a5
    2d98:	00f367b3          	or	a5,t1,a5
    2d9c:	fbdff06f          	j	2d58 <__truncdfsf2+0x1a4>
    2da0:	00068713          	mv	a4,a3
    2da4:	ef5ff06f          	j	2c98 <__truncdfsf2+0xe4>

00002da8 <__clzsi2>:
__clzsi2():
    2da8:	000107b7          	lui	a5,0x10
    2dac:	04f57463          	bgeu	a0,a5,2df4 <__clzsi2+0x4c>
    2db0:	0ff00793          	li	a5,255
    2db4:	02000713          	li	a4,32
    2db8:	00a7ee63          	bltu	a5,a0,2dd4 <__clzsi2+0x2c>
    2dbc:	1fffd797          	auipc	a5,0x1fffd
    2dc0:	75078793          	addi	a5,a5,1872 # 2000050c <__clz_tab>
    2dc4:	00a787b3          	add	a5,a5,a0
    2dc8:	0007c503          	lbu	a0,0(a5)
    2dcc:	40a70533          	sub	a0,a4,a0
    2dd0:	00008067          	ret
    2dd4:	00855513          	srli	a0,a0,0x8
    2dd8:	1fffd797          	auipc	a5,0x1fffd
    2ddc:	73478793          	addi	a5,a5,1844 # 2000050c <__clz_tab>
    2de0:	00a787b3          	add	a5,a5,a0
    2de4:	0007c503          	lbu	a0,0(a5)
    2de8:	01800713          	li	a4,24
    2dec:	40a70533          	sub	a0,a4,a0
    2df0:	00008067          	ret
    2df4:	010007b7          	lui	a5,0x1000
    2df8:	02f56263          	bltu	a0,a5,2e1c <__clzsi2+0x74>
    2dfc:	01855513          	srli	a0,a0,0x18
    2e00:	1fffd797          	auipc	a5,0x1fffd
    2e04:	70c78793          	addi	a5,a5,1804 # 2000050c <__clz_tab>
    2e08:	00a787b3          	add	a5,a5,a0
    2e0c:	0007c503          	lbu	a0,0(a5)
    2e10:	00800713          	li	a4,8
    2e14:	40a70533          	sub	a0,a4,a0
    2e18:	00008067          	ret
    2e1c:	01055513          	srli	a0,a0,0x10
    2e20:	1fffd797          	auipc	a5,0x1fffd
    2e24:	6ec78793          	addi	a5,a5,1772 # 2000050c <__clz_tab>
    2e28:	00a787b3          	add	a5,a5,a0
    2e2c:	0007c503          	lbu	a0,0(a5)
    2e30:	01000713          	li	a4,16
    2e34:	40a70533          	sub	a0,a4,a0
    2e38:	00008067          	ret
